
pwn.elf:     file format elf32-littlearm

Sections:
Idx Name          Size      VMA       LMA       File off  Algn
  0 .isr_vector   00000198  08000000  08000000  00001000  2**0
                  CONTENTS, ALLOC, LOAD, READONLY, DATA
  1 .text         00003378  08000198  08000198  00001198  2**2
                  CONTENTS, ALLOC, LOAD, READONLY, CODE
  2 .rodata       0000081c  08003510  08003510  00004510  2**2
                  CONTENTS, ALLOC, LOAD, READONLY, DATA
  3 .ARM.extab    00000000  08003d2c  08003d2c  00005010  2**0
                  CONTENTS
  4 .ARM          00000008  08003d2c  08003d2c  00004d2c  2**2
                  CONTENTS, ALLOC, LOAD, READONLY, DATA
  5 .preinit_array 00000000  08003d34  08003d34  00005010  2**0
                  CONTENTS, ALLOC, LOAD, DATA
  6 .init_array   00000004  08003d34  08003d34  00004d34  2**2
                  CONTENTS, ALLOC, LOAD, READONLY, DATA
  7 .fini_array   00000004  08003d38  08003d38  00004d38  2**2
                  CONTENTS, ALLOC, LOAD, READONLY, DATA
  8 .data         00000010  20000000  08003d3c  00005000  2**2
                  CONTENTS, ALLOC, LOAD, DATA
  9 .bss          0000057c  20000010  08003d4c  00005010  2**2
                  ALLOC
 10 ._user_heap_stack 00000604  2000058c  08003d4c  0000558c  2**0
                  ALLOC
 11 .ARM.attributes 00000030  00000000  00000000  00005010  2**0
                  CONTENTS, READONLY
 12 .debug_info   0000cf7f  00000000  00000000  00005040  2**0
                  CONTENTS, READONLY, DEBUGGING, OCTETS
 13 .debug_abbrev 00001ef8  00000000  00000000  00011fbf  2**0
                  CONTENTS, READONLY, DEBUGGING, OCTETS
 14 .debug_aranges 00000a80  00000000  00000000  00013eb8  2**3
                  CONTENTS, READONLY, DEBUGGING, OCTETS
 15 .debug_rnglists 000007e0  00000000  00000000  00014938  2**0
                  CONTENTS, READONLY, DEBUGGING, OCTETS
 16 .debug_macro  00016826  00000000  00000000  00015118  2**0
                  CONTENTS, READONLY, DEBUGGING, OCTETS
 17 .debug_line   0000cd26  00000000  00000000  0002b93e  2**0
                  CONTENTS, READONLY, DEBUGGING, OCTETS
 18 .debug_str    0008dadb  00000000  00000000  00038664  2**0
                  CONTENTS, READONLY, DEBUGGING, OCTETS
 19 .comment      000000bc  00000000  00000000  000c613f  2**0
                  CONTENTS, READONLY
 20 .debug_frame  000029f8  00000000  00000000  000c61fc  2**2
                  CONTENTS, READONLY, DEBUGGING, OCTETS
 21 .debug_line_str 00000059  00000000  00000000  000c8bf4  2**0
                  CONTENTS, READONLY, DEBUGGING, OCTETS
 22 .debug_loc    000000fa  00000000  00000000  000c8c4d  2**0
                  CONTENTS, READONLY, DEBUGGING, OCTETS
 23 .debug_ranges 00000010  00000000  00000000  000c8d47  2**0
                  CONTENTS, READONLY, DEBUGGING, OCTETS

Disassembly of section .text:

08000198 <__do_global_dtors_aux>:
 8000198:	b510      	push	{r4, lr}
 800019a:	4c05      	ldr	r4, [pc, #20]	@ (80001b0 <__do_global_dtors_aux+0x18>)
 800019c:	7823      	ldrb	r3, [r4, #0]
 800019e:	b933      	cbnz	r3, 80001ae <__do_global_dtors_aux+0x16>
 80001a0:	4b04      	ldr	r3, [pc, #16]	@ (80001b4 <__do_global_dtors_aux+0x1c>)
 80001a2:	b113      	cbz	r3, 80001aa <__do_global_dtors_aux+0x12>
 80001a4:	4804      	ldr	r0, [pc, #16]	@ (80001b8 <__do_global_dtors_aux+0x20>)
 80001a6:	f3af 8000 	nop.w
 80001aa:	2301      	movs	r3, #1
 80001ac:	7023      	strb	r3, [r4, #0]
 80001ae:	bd10      	pop	{r4, pc}
 80001b0:	20000010 	.word	0x20000010
 80001b4:	00000000 	.word	0x00000000
 80001b8:	080034f8 	.word	0x080034f8

080001bc <frame_dummy>:
 80001bc:	b508      	push	{r3, lr}
 80001be:	4b03      	ldr	r3, [pc, #12]	@ (80001cc <frame_dummy+0x10>)
 80001c0:	b11b      	cbz	r3, 80001ca <frame_dummy+0xe>
 80001c2:	4903      	ldr	r1, [pc, #12]	@ (80001d0 <frame_dummy+0x14>)
 80001c4:	4803      	ldr	r0, [pc, #12]	@ (80001d4 <frame_dummy+0x18>)
 80001c6:	f3af 8000 	nop.w
 80001ca:	bd08      	pop	{r3, pc}
 80001cc:	00000000 	.word	0x00000000
 80001d0:	20000014 	.word	0x20000014
 80001d4:	080034f8 	.word	0x080034f8

080001d8 <__aeabi_uldivmod>:
 80001d8:	b953      	cbnz	r3, 80001f0 <__aeabi_uldivmod+0x18>
 80001da:	b94a      	cbnz	r2, 80001f0 <__aeabi_uldivmod+0x18>
 80001dc:	2900      	cmp	r1, #0
 80001de:	bf08      	it	eq
 80001e0:	2800      	cmpeq	r0, #0
 80001e2:	bf1c      	itt	ne
 80001e4:	f04f 31ff 	movne.w	r1, #4294967295
 80001e8:	f04f 30ff 	movne.w	r0, #4294967295
 80001ec:	f000 b96a 	b.w	80004c4 <__aeabi_idiv0>
 80001f0:	f1ad 0c08 	sub.w	ip, sp, #8
 80001f4:	e96d ce04 	strd	ip, lr, [sp, #-16]!
 80001f8:	f000 f806 	bl	8000208 <__udivmoddi4>
 80001fc:	f8dd e004 	ldr.w	lr, [sp, #4]
 8000200:	e9dd 2302 	ldrd	r2, r3, [sp, #8]
 8000204:	b004      	add	sp, #16
 8000206:	4770      	bx	lr

08000208 <__udivmoddi4>:
 8000208:	e92d 47f0 	stmdb	sp!, {r4, r5, r6, r7, r8, r9, sl, lr}
 800020c:	9d08      	ldr	r5, [sp, #32]
 800020e:	460c      	mov	r4, r1
 8000210:	2b00      	cmp	r3, #0
 8000212:	d14e      	bne.n	80002b2 <__udivmoddi4+0xaa>
 8000214:	4694      	mov	ip, r2
 8000216:	458c      	cmp	ip, r1
 8000218:	4686      	mov	lr, r0
 800021a:	fab2 f282 	clz	r2, r2
 800021e:	d962      	bls.n	80002e6 <__udivmoddi4+0xde>
 8000220:	b14a      	cbz	r2, 8000236 <__udivmoddi4+0x2e>
 8000222:	f1c2 0320 	rsb	r3, r2, #32
 8000226:	4091      	lsls	r1, r2
 8000228:	fa20 f303 	lsr.w	r3, r0, r3
 800022c:	fa0c fc02 	lsl.w	ip, ip, r2
 8000230:	4319      	orrs	r1, r3
 8000232:	fa00 fe02 	lsl.w	lr, r0, r2
 8000236:	ea4f 471c 	mov.w	r7, ip, lsr #16
 800023a:	fa1f f68c 	uxth.w	r6, ip
 800023e:	fbb1 f4f7 	udiv	r4, r1, r7
 8000242:	ea4f 431e 	mov.w	r3, lr, lsr #16
 8000246:	fb07 1114 	mls	r1, r7, r4, r1
 800024a:	ea43 4301 	orr.w	r3, r3, r1, lsl #16
 800024e:	fb04 f106 	mul.w	r1, r4, r6
 8000252:	4299      	cmp	r1, r3
 8000254:	d90a      	bls.n	800026c <__udivmoddi4+0x64>
 8000256:	eb1c 0303 	adds.w	r3, ip, r3
 800025a:	f104 30ff 	add.w	r0, r4, #4294967295
 800025e:	f080 8112 	bcs.w	8000486 <__udivmoddi4+0x27e>
 8000262:	4299      	cmp	r1, r3
 8000264:	f240 810f 	bls.w	8000486 <__udivmoddi4+0x27e>
 8000268:	3c02      	subs	r4, #2
 800026a:	4463      	add	r3, ip
 800026c:	1a59      	subs	r1, r3, r1
 800026e:	fa1f f38e 	uxth.w	r3, lr
 8000272:	fbb1 f0f7 	udiv	r0, r1, r7
 8000276:	fb07 1110 	mls	r1, r7, r0, r1
 800027a:	ea43 4301 	orr.w	r3, r3, r1, lsl #16
 800027e:	fb00 f606 	mul.w	r6, r0, r6
 8000282:	429e      	cmp	r6, r3
 8000284:	d90a      	bls.n	800029c <__udivmoddi4+0x94>
 8000286:	eb1c 0303 	adds.w	r3, ip, r3
 800028a:	f100 31ff 	add.w	r1, r0, #4294967295
 800028e:	f080 80fc 	bcs.w	800048a <__udivmoddi4+0x282>
 8000292:	429e      	cmp	r6, r3
 8000294:	f240 80f9 	bls.w	800048a <__udivmoddi4+0x282>
 8000298:	4463      	add	r3, ip
 800029a:	3802      	subs	r0, #2
 800029c:	1b9b      	subs	r3, r3, r6
 800029e:	ea40 4004 	orr.w	r0, r0, r4, lsl #16
 80002a2:	2100      	movs	r1, #0
 80002a4:	b11d      	cbz	r5, 80002ae <__udivmoddi4+0xa6>
 80002a6:	40d3      	lsrs	r3, r2
 80002a8:	2200      	movs	r2, #0
 80002aa:	e9c5 3200 	strd	r3, r2, [r5]
 80002ae:	e8bd 87f0 	ldmia.w	sp!, {r4, r5, r6, r7, r8, r9, sl, pc}
 80002b2:	428b      	cmp	r3, r1
 80002b4:	d905      	bls.n	80002c2 <__udivmoddi4+0xba>
 80002b6:	b10d      	cbz	r5, 80002bc <__udivmoddi4+0xb4>
 80002b8:	e9c5 0100 	strd	r0, r1, [r5]
 80002bc:	2100      	movs	r1, #0
 80002be:	4608      	mov	r0, r1
 80002c0:	e7f5      	b.n	80002ae <__udivmoddi4+0xa6>
 80002c2:	fab3 f183 	clz	r1, r3
 80002c6:	2900      	cmp	r1, #0
 80002c8:	d146      	bne.n	8000358 <__udivmoddi4+0x150>
 80002ca:	42a3      	cmp	r3, r4
 80002cc:	d302      	bcc.n	80002d4 <__udivmoddi4+0xcc>
 80002ce:	4290      	cmp	r0, r2
 80002d0:	f0c0 80f0 	bcc.w	80004b4 <__udivmoddi4+0x2ac>
 80002d4:	1a86      	subs	r6, r0, r2
 80002d6:	eb64 0303 	sbc.w	r3, r4, r3
 80002da:	2001      	movs	r0, #1
 80002dc:	2d00      	cmp	r5, #0
 80002de:	d0e6      	beq.n	80002ae <__udivmoddi4+0xa6>
 80002e0:	e9c5 6300 	strd	r6, r3, [r5]
 80002e4:	e7e3      	b.n	80002ae <__udivmoddi4+0xa6>
 80002e6:	2a00      	cmp	r2, #0
 80002e8:	f040 8090 	bne.w	800040c <__udivmoddi4+0x204>
 80002ec:	eba1 040c 	sub.w	r4, r1, ip
 80002f0:	ea4f 481c 	mov.w	r8, ip, lsr #16
 80002f4:	fa1f f78c 	uxth.w	r7, ip
 80002f8:	2101      	movs	r1, #1
 80002fa:	fbb4 f6f8 	udiv	r6, r4, r8
 80002fe:	ea4f 431e 	mov.w	r3, lr, lsr #16
 8000302:	fb08 4416 	mls	r4, r8, r6, r4
 8000306:	ea43 4304 	orr.w	r3, r3, r4, lsl #16
 800030a:	fb07 f006 	mul.w	r0, r7, r6
 800030e:	4298      	cmp	r0, r3
 8000310:	d908      	bls.n	8000324 <__udivmoddi4+0x11c>
 8000312:	eb1c 0303 	adds.w	r3, ip, r3
 8000316:	f106 34ff 	add.w	r4, r6, #4294967295
 800031a:	d202      	bcs.n	8000322 <__udivmoddi4+0x11a>
 800031c:	4298      	cmp	r0, r3
 800031e:	f200 80cd 	bhi.w	80004bc <__udivmoddi4+0x2b4>
 8000322:	4626      	mov	r6, r4
 8000324:	1a1c      	subs	r4, r3, r0
 8000326:	fa1f f38e 	uxth.w	r3, lr
 800032a:	fbb4 f0f8 	udiv	r0, r4, r8
 800032e:	fb08 4410 	mls	r4, r8, r0, r4
 8000332:	ea43 4304 	orr.w	r3, r3, r4, lsl #16
 8000336:	fb00 f707 	mul.w	r7, r0, r7
 800033a:	429f      	cmp	r7, r3
 800033c:	d908      	bls.n	8000350 <__udivmoddi4+0x148>
 800033e:	eb1c 0303 	adds.w	r3, ip, r3
 8000342:	f100 34ff 	add.w	r4, r0, #4294967295
 8000346:	d202      	bcs.n	800034e <__udivmoddi4+0x146>
 8000348:	429f      	cmp	r7, r3
 800034a:	f200 80b0 	bhi.w	80004ae <__udivmoddi4+0x2a6>
 800034e:	4620      	mov	r0, r4
 8000350:	1bdb      	subs	r3, r3, r7
 8000352:	ea40 4006 	orr.w	r0, r0, r6, lsl #16
 8000356:	e7a5      	b.n	80002a4 <__udivmoddi4+0x9c>
 8000358:	f1c1 0620 	rsb	r6, r1, #32
 800035c:	408b      	lsls	r3, r1
 800035e:	fa22 f706 	lsr.w	r7, r2, r6
 8000362:	431f      	orrs	r7, r3
 8000364:	fa20 fc06 	lsr.w	ip, r0, r6
 8000368:	fa04 f301 	lsl.w	r3, r4, r1
 800036c:	ea43 030c 	orr.w	r3, r3, ip
 8000370:	40f4      	lsrs	r4, r6
 8000372:	fa00 f801 	lsl.w	r8, r0, r1
 8000376:	0c38      	lsrs	r0, r7, #16
 8000378:	ea4f 4913 	mov.w	r9, r3, lsr #16
 800037c:	fbb4 fef0 	udiv	lr, r4, r0
 8000380:	fa1f fc87 	uxth.w	ip, r7
 8000384:	fb00 441e 	mls	r4, r0, lr, r4
 8000388:	ea49 4404 	orr.w	r4, r9, r4, lsl #16
 800038c:	fb0e f90c 	mul.w	r9, lr, ip
 8000390:	45a1      	cmp	r9, r4
 8000392:	fa02 f201 	lsl.w	r2, r2, r1
 8000396:	d90a      	bls.n	80003ae <__udivmoddi4+0x1a6>
 8000398:	193c      	adds	r4, r7, r4
 800039a:	f10e 3aff 	add.w	sl, lr, #4294967295
 800039e:	f080 8084 	bcs.w	80004aa <__udivmoddi4+0x2a2>
 80003a2:	45a1      	cmp	r9, r4
 80003a4:	f240 8081 	bls.w	80004aa <__udivmoddi4+0x2a2>
 80003a8:	f1ae 0e02 	sub.w	lr, lr, #2
 80003ac:	443c      	add	r4, r7
 80003ae:	eba4 0409 	sub.w	r4, r4, r9
 80003b2:	fa1f f983 	uxth.w	r9, r3
 80003b6:	fbb4 f3f0 	udiv	r3, r4, r0
 80003ba:	fb00 4413 	mls	r4, r0, r3, r4
 80003be:	ea49 4404 	orr.w	r4, r9, r4, lsl #16
 80003c2:	fb03 fc0c 	mul.w	ip, r3, ip
 80003c6:	45a4      	cmp	ip, r4
 80003c8:	d907      	bls.n	80003da <__udivmoddi4+0x1d2>
 80003ca:	193c      	adds	r4, r7, r4
 80003cc:	f103 30ff 	add.w	r0, r3, #4294967295
 80003d0:	d267      	bcs.n	80004a2 <__udivmoddi4+0x29a>
 80003d2:	45a4      	cmp	ip, r4
 80003d4:	d965      	bls.n	80004a2 <__udivmoddi4+0x29a>
 80003d6:	3b02      	subs	r3, #2
 80003d8:	443c      	add	r4, r7
 80003da:	ea43 400e 	orr.w	r0, r3, lr, lsl #16
 80003de:	fba0 9302 	umull	r9, r3, r0, r2
 80003e2:	eba4 040c 	sub.w	r4, r4, ip
 80003e6:	429c      	cmp	r4, r3
 80003e8:	46ce      	mov	lr, r9
 80003ea:	469c      	mov	ip, r3
 80003ec:	d351      	bcc.n	8000492 <__udivmoddi4+0x28a>
 80003ee:	d04e      	beq.n	800048e <__udivmoddi4+0x286>
 80003f0:	b155      	cbz	r5, 8000408 <__udivmoddi4+0x200>
 80003f2:	ebb8 030e 	subs.w	r3, r8, lr
 80003f6:	eb64 040c 	sbc.w	r4, r4, ip
 80003fa:	fa04 f606 	lsl.w	r6, r4, r6
 80003fe:	40cb      	lsrs	r3, r1
 8000400:	431e      	orrs	r6, r3
 8000402:	40cc      	lsrs	r4, r1
 8000404:	e9c5 6400 	strd	r6, r4, [r5]
 8000408:	2100      	movs	r1, #0
 800040a:	e750      	b.n	80002ae <__udivmoddi4+0xa6>
 800040c:	f1c2 0320 	rsb	r3, r2, #32
 8000410:	fa20 f103 	lsr.w	r1, r0, r3
 8000414:	fa0c fc02 	lsl.w	ip, ip, r2
 8000418:	fa24 f303 	lsr.w	r3, r4, r3
 800041c:	4094      	lsls	r4, r2
 800041e:	430c      	orrs	r4, r1
 8000420:	ea4f 481c 	mov.w	r8, ip, lsr #16
 8000424:	fa00 fe02 	lsl.w	lr, r0, r2
 8000428:	fa1f f78c 	uxth.w	r7, ip
 800042c:	fbb3 f0f8 	udiv	r0, r3, r8
 8000430:	fb08 3110 	mls	r1, r8, r0, r3
 8000434:	0c23      	lsrs	r3, r4, #16
 8000436:	ea43 4301 	orr.w	r3, r3, r1, lsl #16
 800043a:	fb00 f107 	mul.w	r1, r0, r7
 800043e:	4299      	cmp	r1, r3
 8000440:	d908      	bls.n	8000454 <__udivmoddi4+0x24c>
 8000442:	eb1c 0303 	adds.w	r3, ip, r3
 8000446:	f100 36ff 	add.w	r6, r0, #4294967295
 800044a:	d22c      	bcs.n	80004a6 <__udivmoddi4+0x29e>
 800044c:	4299      	cmp	r1, r3
 800044e:	d92a      	bls.n	80004a6 <__udivmoddi4+0x29e>
 8000450:	3802      	subs	r0, #2
 8000452:	4463      	add	r3, ip
 8000454:	1a5b      	subs	r3, r3, r1
 8000456:	b2a4      	uxth	r4, r4
 8000458:	fbb3 f1f8 	udiv	r1, r3, r8
 800045c:	fb08 3311 	mls	r3, r8, r1, r3
 8000460:	ea44 4403 	orr.w	r4, r4, r3, lsl #16
 8000464:	fb01 f307 	mul.w	r3, r1, r7
 8000468:	42a3      	cmp	r3, r4
 800046a:	d908      	bls.n	800047e <__udivmoddi4+0x276>
 800046c:	eb1c 0404 	adds.w	r4, ip, r4
 8000470:	f101 36ff 	add.w	r6, r1, #4294967295
 8000474:	d213      	bcs.n	800049e <__udivmoddi4+0x296>
 8000476:	42a3      	cmp	r3, r4
 8000478:	d911      	bls.n	800049e <__udivmoddi4+0x296>
 800047a:	3902      	subs	r1, #2
 800047c:	4464      	add	r4, ip
 800047e:	1ae4      	subs	r4, r4, r3
 8000480:	ea41 4100 	orr.w	r1, r1, r0, lsl #16
 8000484:	e739      	b.n	80002fa <__udivmoddi4+0xf2>
 8000486:	4604      	mov	r4, r0
 8000488:	e6f0      	b.n	800026c <__udivmoddi4+0x64>
 800048a:	4608      	mov	r0, r1
 800048c:	e706      	b.n	800029c <__udivmoddi4+0x94>
 800048e:	45c8      	cmp	r8, r9
 8000490:	d2ae      	bcs.n	80003f0 <__udivmoddi4+0x1e8>
 8000492:	ebb9 0e02 	subs.w	lr, r9, r2
 8000496:	eb63 0c07 	sbc.w	ip, r3, r7
 800049a:	3801      	subs	r0, #1
 800049c:	e7a8      	b.n	80003f0 <__udivmoddi4+0x1e8>
 800049e:	4631      	mov	r1, r6
 80004a0:	e7ed      	b.n	800047e <__udivmoddi4+0x276>
 80004a2:	4603      	mov	r3, r0
 80004a4:	e799      	b.n	80003da <__udivmoddi4+0x1d2>
 80004a6:	4630      	mov	r0, r6
 80004a8:	e7d4      	b.n	8000454 <__udivmoddi4+0x24c>
 80004aa:	46d6      	mov	lr, sl
 80004ac:	e77f      	b.n	80003ae <__udivmoddi4+0x1a6>
 80004ae:	4463      	add	r3, ip
 80004b0:	3802      	subs	r0, #2
 80004b2:	e74d      	b.n	8000350 <__udivmoddi4+0x148>
 80004b4:	4606      	mov	r6, r0
 80004b6:	4623      	mov	r3, r4
 80004b8:	4608      	mov	r0, r1
 80004ba:	e70f      	b.n	80002dc <__udivmoddi4+0xd4>
 80004bc:	3e02      	subs	r6, #2
 80004be:	4463      	add	r3, ip
 80004c0:	e730      	b.n	8000324 <__udivmoddi4+0x11c>
 80004c2:	bf00      	nop

080004c4 <__aeabi_idiv0>:
 80004c4:	4770      	bx	lr
 80004c6:	bf00      	nop

080004c8 <MX_DMA_Init>:

/**
  * Enable DMA controller clock
  */
void MX_DMA_Init(void)
{
 80004c8:	b580      	push	{r7, lr}
 80004ca:	b082      	sub	sp, #8
 80004cc:	af00      	add	r7, sp, #0

  /* DMA controller clock enable */
  __HAL_RCC_DMA2_CLK_ENABLE();
 80004ce:	2300      	movs	r3, #0
 80004d0:	607b      	str	r3, [r7, #4]
 80004d2:	4b0c      	ldr	r3, [pc, #48]	@ (8000504 <MX_DMA_Init+0x3c>)
 80004d4:	6b1b      	ldr	r3, [r3, #48]	@ 0x30
 80004d6:	4a0b      	ldr	r2, [pc, #44]	@ (8000504 <MX_DMA_Init+0x3c>)
 80004d8:	f443 0380 	orr.w	r3, r3, #4194304	@ 0x400000
 80004dc:	6313      	str	r3, [r2, #48]	@ 0x30
 80004de:	4b09      	ldr	r3, [pc, #36]	@ (8000504 <MX_DMA_Init+0x3c>)
 80004e0:	6b1b      	ldr	r3, [r3, #48]	@ 0x30
 80004e2:	f403 0380 	and.w	r3, r3, #4194304	@ 0x400000
 80004e6:	607b      	str	r3, [r7, #4]
 80004e8:	687b      	ldr	r3, [r7, #4]

  /* DMA interrupt init */
  /* DMA2_Stream5_IRQn interrupt configuration */
  HAL_NVIC_SetPriority(DMA2_Stream5_IRQn, 0, 0);
 80004ea:	2200      	movs	r2, #0
 80004ec:	2100      	movs	r1, #0
 80004ee:	2044      	movs	r0, #68	@ 0x44
 80004f0:	f000 fcdb 	bl	8000eaa <HAL_NVIC_SetPriority>
  HAL_NVIC_EnableIRQ(DMA2_Stream5_IRQn);
 80004f4:	2044      	movs	r0, #68	@ 0x44
 80004f6:	f000 fcf4 	bl	8000ee2 <HAL_NVIC_EnableIRQ>

}
 80004fa:	bf00      	nop
 80004fc:	3708      	adds	r7, #8
 80004fe:	46bd      	mov	sp, r7
 8000500:	bd80      	pop	{r7, pc}
 8000502:	bf00      	nop
 8000504:	40023800 	.word	0x40023800

08000508 <MX_GPIO_Init>:
        * Output
        * EVENT_OUT
        * EXTI
*/
void MX_GPIO_Init(void)
{
 8000508:	b480      	push	{r7}
 800050a:	b083      	sub	sp, #12
 800050c:	af00      	add	r7, sp, #0

  /* GPIO Ports Clock Enable */
  __HAL_RCC_GPIOH_CLK_ENABLE();
 800050e:	2300      	movs	r3, #0
 8000510:	607b      	str	r3, [r7, #4]
 8000512:	4b10      	ldr	r3, [pc, #64]	@ (8000554 <MX_GPIO_Init+0x4c>)
 8000514:	6b1b      	ldr	r3, [r3, #48]	@ 0x30
 8000516:	4a0f      	ldr	r2, [pc, #60]	@ (8000554 <MX_GPIO_Init+0x4c>)
 8000518:	f043 0380 	orr.w	r3, r3, #128	@ 0x80
 800051c:	6313      	str	r3, [r2, #48]	@ 0x30
 800051e:	4b0d      	ldr	r3, [pc, #52]	@ (8000554 <MX_GPIO_Init+0x4c>)
 8000520:	6b1b      	ldr	r3, [r3, #48]	@ 0x30
 8000522:	f003 0380 	and.w	r3, r3, #128	@ 0x80
 8000526:	607b      	str	r3, [r7, #4]
 8000528:	687b      	ldr	r3, [r7, #4]
  __HAL_RCC_GPIOA_CLK_ENABLE();
 800052a:	2300      	movs	r3, #0
 800052c:	603b      	str	r3, [r7, #0]
 800052e:	4b09      	ldr	r3, [pc, #36]	@ (8000554 <MX_GPIO_Init+0x4c>)
 8000530:	6b1b      	ldr	r3, [r3, #48]	@ 0x30
 8000532:	4a08      	ldr	r2, [pc, #32]	@ (8000554 <MX_GPIO_Init+0x4c>)
 8000534:	f043 0301 	orr.w	r3, r3, #1
 8000538:	6313      	str	r3, [r2, #48]	@ 0x30
 800053a:	4b06      	ldr	r3, [pc, #24]	@ (8000554 <MX_GPIO_Init+0x4c>)
 800053c:	6b1b      	ldr	r3, [r3, #48]	@ 0x30
 800053e:	f003 0301 	and.w	r3, r3, #1
 8000542:	603b      	str	r3, [r7, #0]
 8000544:	683b      	ldr	r3, [r7, #0]

}
 8000546:	bf00      	nop
 8000548:	370c      	adds	r7, #12
 800054a:	46bd      	mov	sp, r7
 800054c:	f85d 7b04 	ldr.w	r7, [sp], #4
 8000550:	4770      	bx	lr
 8000552:	bf00      	nop
 8000554:	40023800 	.word	0x40023800

08000558 <main>:
/**
  * @brief  The application entry point.
  * @retval int
  */
int main(void)
{
 8000558:	b580      	push	{r7, lr}
 800055a:	ed2d 8b02 	vpush	{d8}
 800055e:	b084      	sub	sp, #16
 8000560:	af02      	add	r7, sp, #8
  /* USER CODE END 1 */

  /* MCU Configuration--------------------------------------------------------*/

  /* Reset of all peripherals, Initializes the Flash interface and the Systick. */
  HAL_Init();
 8000562:	f000 fb55 	bl	8000c10 <HAL_Init>
  /* USER CODE BEGIN Init */

  /* USER CODE END Init */

  /* Configure the system clock */
  SystemClock_Config();
 8000566:	f000 f901 	bl	800076c <SystemClock_Config>
  /* USER CODE BEGIN SysInit */

  /* USER CODE END SysInit */

  /* Initialize all configured peripherals */
  MX_GPIO_Init();
 800056a:	f7ff ffcd 	bl	8000508 <MX_GPIO_Init>
  MX_DMA_Init();
 800056e:	f7ff ffab 	bl	80004c8 <MX_DMA_Init>
  MX_TIM1_Init();
 8000572:	f000 f9dd 	bl	8000930 <MX_TIM1_Init>
  /* USER CODE BEGIN 2 */

  for (uint8_t i = 0; i<100; i++) { // опорная частота шим 4 кГц/50 Гц
 8000576:	2300      	movs	r3, #0
 8000578:	71fb      	strb	r3, [r7, #7]
 800057a:	e03a      	b.n	80005f2 <main+0x9a>
  	  angle = i * 3.6f; // угол отсчета 360/80 в градусах
 800057c:	79fb      	ldrb	r3, [r7, #7]
 800057e:	ee07 3a90 	vmov	s15, r3
 8000582:	eef8 7ae7 	vcvt.f32.s32	s15, s15
 8000586:	ed9f 7a70 	vldr	s14, [pc, #448]	@ 8000748 <main+0x1f0>
 800058a:	ee67 7a87 	vmul.f32	s15, s15, s14
 800058e:	4b6f      	ldr	r3, [pc, #444]	@ (800074c <main+0x1f4>)
 8000590:	edc3 7a00 	vstr	s15, [r3]
  	  // angle = i * 0.7853981f; // угол отсчета 2pi/80 в радианах
  	  // sindat[3 * i] = uf + uf * arm_sin_f32(angle);
  	  sindat[3 * i] = (uint32_t) (uf + uf * arm_sin_f32((angle * PI)/180));
 8000594:	4b6e      	ldr	r3, [pc, #440]	@ (8000750 <main+0x1f8>)
 8000596:	681b      	ldr	r3, [r3, #0]
 8000598:	ee07 3a90 	vmov	s15, r3
 800059c:	eeb8 8a67 	vcvt.f32.u32	s16, s15
 80005a0:	4b6b      	ldr	r3, [pc, #428]	@ (8000750 <main+0x1f8>)
 80005a2:	681b      	ldr	r3, [r3, #0]
 80005a4:	ee07 3a90 	vmov	s15, r3
 80005a8:	eef8 8a67 	vcvt.f32.u32	s17, s15
 80005ac:	4b67      	ldr	r3, [pc, #412]	@ (800074c <main+0x1f4>)
 80005ae:	edd3 7a00 	vldr	s15, [r3]
 80005b2:	ed9f 7a68 	vldr	s14, [pc, #416]	@ 8000754 <main+0x1fc>
 80005b6:	ee67 7a87 	vmul.f32	s15, s15, s14
 80005ba:	eddf 6a67 	vldr	s13, [pc, #412]	@ 8000758 <main+0x200>
 80005be:	ee87 7aa6 	vdiv.f32	s14, s15, s13
 80005c2:	eeb0 0a47 	vmov.f32	s0, s14
 80005c6:	f002 ff25 	bl	8003414 <arm_sin_f32>
 80005ca:	eef0 7a40 	vmov.f32	s15, s0
 80005ce:	ee68 7aa7 	vmul.f32	s15, s17, s15
 80005d2:	ee78 7a27 	vadd.f32	s15, s16, s15
 80005d6:	79fa      	ldrb	r2, [r7, #7]
 80005d8:	4613      	mov	r3, r2
 80005da:	005b      	lsls	r3, r3, #1
 80005dc:	4413      	add	r3, r2
 80005de:	eefc 7ae7 	vcvt.u32.f32	s15, s15
 80005e2:	ee17 1a90 	vmov	r1, s15
 80005e6:	4a5d      	ldr	r2, [pc, #372]	@ (800075c <main+0x204>)
 80005e8:	f842 1023 	str.w	r1, [r2, r3, lsl #2]
  for (uint8_t i = 0; i<100; i++) { // опорная частота шим 4 кГц/50 Гц
 80005ec:	79fb      	ldrb	r3, [r7, #7]
 80005ee:	3301      	adds	r3, #1
 80005f0:	71fb      	strb	r3, [r7, #7]
 80005f2:	79fb      	ldrb	r3, [r7, #7]
 80005f4:	2b63      	cmp	r3, #99	@ 0x63
 80005f6:	d9c1      	bls.n	800057c <main+0x24>
  }

  	  // фаза Б
  for (uint8_t i = 0; i<100; i++) { // опорная частота шим 4 кГц/50 Гц
 80005f8:	2300      	movs	r3, #0
 80005fa:	71bb      	strb	r3, [r7, #6]
 80005fc:	e03f      	b.n	800067e <main+0x126>
    	  angle = i * 3.6f + 120; // угол отсчета 360/80 в градусах
 80005fe:	79bb      	ldrb	r3, [r7, #6]
 8000600:	ee07 3a90 	vmov	s15, r3
 8000604:	eef8 7ae7 	vcvt.f32.s32	s15, s15
 8000608:	ed9f 7a4f 	vldr	s14, [pc, #316]	@ 8000748 <main+0x1f0>
 800060c:	ee67 7a87 	vmul.f32	s15, s15, s14
 8000610:	ed9f 7a53 	vldr	s14, [pc, #332]	@ 8000760 <main+0x208>
 8000614:	ee77 7a87 	vadd.f32	s15, s15, s14
 8000618:	4b4c      	ldr	r3, [pc, #304]	@ (800074c <main+0x1f4>)
 800061a:	edc3 7a00 	vstr	s15, [r3]
    	      	  sindat[(3 * i) + 1] = uf + uf * arm_sin_f32((angle * PI)/180);
 800061e:	4b4c      	ldr	r3, [pc, #304]	@ (8000750 <main+0x1f8>)
 8000620:	681b      	ldr	r3, [r3, #0]
 8000622:	ee07 3a90 	vmov	s15, r3
 8000626:	eeb8 8a67 	vcvt.f32.u32	s16, s15
 800062a:	4b49      	ldr	r3, [pc, #292]	@ (8000750 <main+0x1f8>)
 800062c:	681b      	ldr	r3, [r3, #0]
 800062e:	ee07 3a90 	vmov	s15, r3
 8000632:	eef8 8a67 	vcvt.f32.u32	s17, s15
 8000636:	4b45      	ldr	r3, [pc, #276]	@ (800074c <main+0x1f4>)
 8000638:	edd3 7a00 	vldr	s15, [r3]
 800063c:	ed9f 7a45 	vldr	s14, [pc, #276]	@ 8000754 <main+0x1fc>
 8000640:	ee67 7a87 	vmul.f32	s15, s15, s14
 8000644:	eddf 6a44 	vldr	s13, [pc, #272]	@ 8000758 <main+0x200>
 8000648:	ee87 7aa6 	vdiv.f32	s14, s15, s13
 800064c:	eeb0 0a47 	vmov.f32	s0, s14
 8000650:	f002 fee0 	bl	8003414 <arm_sin_f32>
 8000654:	eef0 7a40 	vmov.f32	s15, s0
 8000658:	ee68 7aa7 	vmul.f32	s15, s17, s15
 800065c:	ee78 7a27 	vadd.f32	s15, s16, s15
 8000660:	79ba      	ldrb	r2, [r7, #6]
 8000662:	4613      	mov	r3, r2
 8000664:	005b      	lsls	r3, r3, #1
 8000666:	4413      	add	r3, r2
 8000668:	3301      	adds	r3, #1
 800066a:	eefc 7ae7 	vcvt.u32.f32	s15, s15
 800066e:	ee17 1a90 	vmov	r1, s15
 8000672:	4a3a      	ldr	r2, [pc, #232]	@ (800075c <main+0x204>)
 8000674:	f842 1023 	str.w	r1, [r2, r3, lsl #2]
  for (uint8_t i = 0; i<100; i++) { // опорная частота шим 4 кГц/50 Гц
 8000678:	79bb      	ldrb	r3, [r7, #6]
 800067a:	3301      	adds	r3, #1
 800067c:	71bb      	strb	r3, [r7, #6]
 800067e:	79bb      	ldrb	r3, [r7, #6]
 8000680:	2b63      	cmp	r3, #99	@ 0x63
 8000682:	d9bc      	bls.n	80005fe <main+0xa6>
    }

  // фаза С
    for (uint8_t i = 0; i<100; i++) { // опорная частота шим 4 кГц/50 Гц
 8000684:	2300      	movs	r3, #0
 8000686:	717b      	strb	r3, [r7, #5]
 8000688:	e03f      	b.n	800070a <main+0x1b2>
      	  angle = i * 3.6f + 240; // угол отсчета 360/80 в градусах
 800068a:	797b      	ldrb	r3, [r7, #5]
 800068c:	ee07 3a90 	vmov	s15, r3
 8000690:	eef8 7ae7 	vcvt.f32.s32	s15, s15
 8000694:	ed9f 7a2c 	vldr	s14, [pc, #176]	@ 8000748 <main+0x1f0>
 8000698:	ee67 7a87 	vmul.f32	s15, s15, s14
 800069c:	ed9f 7a31 	vldr	s14, [pc, #196]	@ 8000764 <main+0x20c>
 80006a0:	ee77 7a87 	vadd.f32	s15, s15, s14
 80006a4:	4b29      	ldr	r3, [pc, #164]	@ (800074c <main+0x1f4>)
 80006a6:	edc3 7a00 	vstr	s15, [r3]
      	      	  sindat[(3 * i) + 2] = uf + uf * arm_sin_f32((angle * PI)/180);
 80006aa:	4b29      	ldr	r3, [pc, #164]	@ (8000750 <main+0x1f8>)
 80006ac:	681b      	ldr	r3, [r3, #0]
 80006ae:	ee07 3a90 	vmov	s15, r3
 80006b2:	eeb8 8a67 	vcvt.f32.u32	s16, s15
 80006b6:	4b26      	ldr	r3, [pc, #152]	@ (8000750 <main+0x1f8>)
 80006b8:	681b      	ldr	r3, [r3, #0]
 80006ba:	ee07 3a90 	vmov	s15, r3
 80006be:	eef8 8a67 	vcvt.f32.u32	s17, s15
 80006c2:	4b22      	ldr	r3, [pc, #136]	@ (800074c <main+0x1f4>)
 80006c4:	edd3 7a00 	vldr	s15, [r3]
 80006c8:	ed9f 7a22 	vldr	s14, [pc, #136]	@ 8000754 <main+0x1fc>
 80006cc:	ee67 7a87 	vmul.f32	s15, s15, s14
 80006d0:	eddf 6a21 	vldr	s13, [pc, #132]	@ 8000758 <main+0x200>
 80006d4:	ee87 7aa6 	vdiv.f32	s14, s15, s13
 80006d8:	eeb0 0a47 	vmov.f32	s0, s14
 80006dc:	f002 fe9a 	bl	8003414 <arm_sin_f32>
 80006e0:	eef0 7a40 	vmov.f32	s15, s0
 80006e4:	ee68 7aa7 	vmul.f32	s15, s17, s15
 80006e8:	ee78 7a27 	vadd.f32	s15, s16, s15
 80006ec:	797a      	ldrb	r2, [r7, #5]
 80006ee:	4613      	mov	r3, r2
 80006f0:	005b      	lsls	r3, r3, #1
 80006f2:	4413      	add	r3, r2
 80006f4:	3302      	adds	r3, #2
 80006f6:	eefc 7ae7 	vcvt.u32.f32	s15, s15
 80006fa:	ee17 1a90 	vmov	r1, s15
 80006fe:	4a17      	ldr	r2, [pc, #92]	@ (800075c <main+0x204>)
 8000700:	f842 1023 	str.w	r1, [r2, r3, lsl #2]
    for (uint8_t i = 0; i<100; i++) { // опорная частота шим 4 кГц/50 Гц
 8000704:	797b      	ldrb	r3, [r7, #5]
 8000706:	3301      	adds	r3, #1
 8000708:	717b      	strb	r3, [r7, #5]
 800070a:	797b      	ldrb	r3, [r7, #5]
 800070c:	2b63      	cmp	r3, #99	@ 0x63
 800070e:	d9bc      	bls.n	800068a <main+0x132>
      }


HAL_TIM_DMABurst_MultiWriteStart(&htim1, TIM_DMABASE_CCR1, TIM_DMA_UPDATE, (uint32_t*)sindat, TIM_DMABURSTLENGTH_3TRANSFERS, 300);
 8000710:	f44f 7396 	mov.w	r3, #300	@ 0x12c
 8000714:	9301      	str	r3, [sp, #4]
 8000716:	f44f 7300 	mov.w	r3, #512	@ 0x200
 800071a:	9300      	str	r3, [sp, #0]
 800071c:	4b0f      	ldr	r3, [pc, #60]	@ (800075c <main+0x204>)
 800071e:	f44f 7280 	mov.w	r2, #256	@ 0x100
 8000722:	210d      	movs	r1, #13
 8000724:	4810      	ldr	r0, [pc, #64]	@ (8000768 <main+0x210>)
 8000726:	f001 ff29 	bl	800257c <HAL_TIM_DMABurst_MultiWriteStart>

HAL_TIM_PWM_Start(&htim1, TIM_CHANNEL_1);
 800072a:	2100      	movs	r1, #0
 800072c:	480e      	ldr	r0, [pc, #56]	@ (8000768 <main+0x210>)
 800072e:	f001 fdb3 	bl	8002298 <HAL_TIM_PWM_Start>
HAL_TIM_PWM_Start(&htim1, TIM_CHANNEL_2);
 8000732:	2104      	movs	r1, #4
 8000734:	480c      	ldr	r0, [pc, #48]	@ (8000768 <main+0x210>)
 8000736:	f001 fdaf 	bl	8002298 <HAL_TIM_PWM_Start>
HAL_TIM_PWM_Start(&htim1, TIM_CHANNEL_3);
 800073a:	2108      	movs	r1, #8
 800073c:	480a      	ldr	r0, [pc, #40]	@ (8000768 <main+0x210>)
 800073e:	f001 fdab 	bl	8002298 <HAL_TIM_PWM_Start>

  /* USER CODE END 2 */

  /* Infinite loop */
  /* USER CODE BEGIN WHILE */
  while (1)
 8000742:	bf00      	nop
 8000744:	e7fd      	b.n	8000742 <main+0x1ea>
 8000746:	bf00      	nop
 8000748:	40666666 	.word	0x40666666
 800074c:	2000002c 	.word	0x2000002c
 8000750:	20000000 	.word	0x20000000
 8000754:	40490fdb 	.word	0x40490fdb
 8000758:	43340000 	.word	0x43340000
 800075c:	20000030 	.word	0x20000030
 8000760:	42f00000 	.word	0x42f00000
 8000764:	43700000 	.word	0x43700000
 8000768:	200004e0 	.word	0x200004e0

0800076c <SystemClock_Config>:
/**
  * @brief System Clock Configuration
  * @retval None
  */
void SystemClock_Config(void)
{
 800076c:	b580      	push	{r7, lr}
 800076e:	b094      	sub	sp, #80	@ 0x50
 8000770:	af00      	add	r7, sp, #0
  RCC_OscInitTypeDef RCC_OscInitStruct = {0};
 8000772:	f107 0320 	add.w	r3, r7, #32
 8000776:	2230      	movs	r2, #48	@ 0x30
 8000778:	2100      	movs	r1, #0
 800077a:	4618      	mov	r0, r3
 800077c:	f002 fe90 	bl	80034a0 <memset>
  RCC_ClkInitTypeDef RCC_ClkInitStruct = {0};
 8000780:	f107 030c 	add.w	r3, r7, #12
 8000784:	2200      	movs	r2, #0
 8000786:	601a      	str	r2, [r3, #0]
 8000788:	605a      	str	r2, [r3, #4]
 800078a:	609a      	str	r2, [r3, #8]
 800078c:	60da      	str	r2, [r3, #12]
 800078e:	611a      	str	r2, [r3, #16]

  /** Configure the main internal regulator output voltage
  */
  __HAL_RCC_PWR_CLK_ENABLE();
 8000790:	2300      	movs	r3, #0
 8000792:	60bb      	str	r3, [r7, #8]
 8000794:	4b27      	ldr	r3, [pc, #156]	@ (8000834 <SystemClock_Config+0xc8>)
 8000796:	6c1b      	ldr	r3, [r3, #64]	@ 0x40
 8000798:	4a26      	ldr	r2, [pc, #152]	@ (8000834 <SystemClock_Config+0xc8>)
 800079a:	f043 5380 	orr.w	r3, r3, #268435456	@ 0x10000000
 800079e:	6413      	str	r3, [r2, #64]	@ 0x40
 80007a0:	4b24      	ldr	r3, [pc, #144]	@ (8000834 <SystemClock_Config+0xc8>)
 80007a2:	6c1b      	ldr	r3, [r3, #64]	@ 0x40
 80007a4:	f003 5380 	and.w	r3, r3, #268435456	@ 0x10000000
 80007a8:	60bb      	str	r3, [r7, #8]
 80007aa:	68bb      	ldr	r3, [r7, #8]
  __HAL_PWR_VOLTAGESCALING_CONFIG(PWR_REGULATOR_VOLTAGE_SCALE1);
 80007ac:	2300      	movs	r3, #0
 80007ae:	607b      	str	r3, [r7, #4]
 80007b0:	4b21      	ldr	r3, [pc, #132]	@ (8000838 <SystemClock_Config+0xcc>)
 80007b2:	681b      	ldr	r3, [r3, #0]
 80007b4:	4a20      	ldr	r2, [pc, #128]	@ (8000838 <SystemClock_Config+0xcc>)
 80007b6:	f443 4340 	orr.w	r3, r3, #49152	@ 0xc000
 80007ba:	6013      	str	r3, [r2, #0]
 80007bc:	4b1e      	ldr	r3, [pc, #120]	@ (8000838 <SystemClock_Config+0xcc>)
 80007be:	681b      	ldr	r3, [r3, #0]
 80007c0:	f403 4340 	and.w	r3, r3, #49152	@ 0xc000
 80007c4:	607b      	str	r3, [r7, #4]
 80007c6:	687b      	ldr	r3, [r7, #4]

  /** Initializes the RCC Oscillators according to the specified parameters
  * in the RCC_OscInitTypeDef structure.
  */
  RCC_OscInitStruct.OscillatorType = RCC_OSCILLATORTYPE_HSE;
 80007c8:	2301      	movs	r3, #1
 80007ca:	623b      	str	r3, [r7, #32]
  RCC_OscInitStruct.HSEState = RCC_HSE_ON;
 80007cc:	f44f 3380 	mov.w	r3, #65536	@ 0x10000
 80007d0:	627b      	str	r3, [r7, #36]	@ 0x24
  RCC_OscInitStruct.PLL.PLLState = RCC_PLL_ON;
 80007d2:	2302      	movs	r3, #2
 80007d4:	63bb      	str	r3, [r7, #56]	@ 0x38
  RCC_OscInitStruct.PLL.PLLSource = RCC_PLLSOURCE_HSE;
 80007d6:	f44f 0380 	mov.w	r3, #4194304	@ 0x400000
 80007da:	63fb      	str	r3, [r7, #60]	@ 0x3c
  RCC_OscInitStruct.PLL.PLLM = 15;
 80007dc:	230f      	movs	r3, #15
 80007de:	643b      	str	r3, [r7, #64]	@ 0x40
  RCC_OscInitStruct.PLL.PLLN = 96;
 80007e0:	2360      	movs	r3, #96	@ 0x60
 80007e2:	647b      	str	r3, [r7, #68]	@ 0x44
  RCC_OscInitStruct.PLL.PLLP = RCC_PLLP_DIV2;
 80007e4:	2302      	movs	r3, #2
 80007e6:	64bb      	str	r3, [r7, #72]	@ 0x48
  RCC_OscInitStruct.PLL.PLLQ = 4;
 80007e8:	2304      	movs	r3, #4
 80007ea:	64fb      	str	r3, [r7, #76]	@ 0x4c
  if (HAL_RCC_OscConfig(&RCC_OscInitStruct) != HAL_OK)
 80007ec:	f107 0320 	add.w	r3, r7, #32
 80007f0:	4618      	mov	r0, r3
 80007f2:	f001 f885 	bl	8001900 <HAL_RCC_OscConfig>
 80007f6:	4603      	mov	r3, r0
 80007f8:	2b00      	cmp	r3, #0
 80007fa:	d001      	beq.n	8000800 <SystemClock_Config+0x94>
  {
    Error_Handler();
 80007fc:	f000 f81e 	bl	800083c <Error_Handler>
  }

  /** Initializes the CPU, AHB and APB buses clocks
  */
  RCC_ClkInitStruct.ClockType = RCC_CLOCKTYPE_HCLK|RCC_CLOCKTYPE_SYSCLK
 8000800:	230f      	movs	r3, #15
 8000802:	60fb      	str	r3, [r7, #12]
                              |RCC_CLOCKTYPE_PCLK1|RCC_CLOCKTYPE_PCLK2;
  RCC_ClkInitStruct.SYSCLKSource = RCC_SYSCLKSOURCE_PLLCLK;
 8000804:	2302      	movs	r3, #2
 8000806:	613b      	str	r3, [r7, #16]
  RCC_ClkInitStruct.AHBCLKDivider = RCC_SYSCLK_DIV1;
 8000808:	2300      	movs	r3, #0
 800080a:	617b      	str	r3, [r7, #20]
  RCC_ClkInitStruct.APB1CLKDivider = RCC_HCLK_DIV2;
 800080c:	f44f 5380 	mov.w	r3, #4096	@ 0x1000
 8000810:	61bb      	str	r3, [r7, #24]
  RCC_ClkInitStruct.APB2CLKDivider = RCC_HCLK_DIV1;
 8000812:	2300      	movs	r3, #0
 8000814:	61fb      	str	r3, [r7, #28]

  if (HAL_RCC_ClockConfig(&RCC_ClkInitStruct, FLASH_LATENCY_2) != HAL_OK)
 8000816:	f107 030c 	add.w	r3, r7, #12
 800081a:	2102      	movs	r1, #2
 800081c:	4618      	mov	r0, r3
 800081e:	f001 fae7 	bl	8001df0 <HAL_RCC_ClockConfig>
 8000822:	4603      	mov	r3, r0
 8000824:	2b00      	cmp	r3, #0
 8000826:	d001      	beq.n	800082c <SystemClock_Config+0xc0>
  {
    Error_Handler();
 8000828:	f000 f808 	bl	800083c <Error_Handler>
  }
}
 800082c:	bf00      	nop
 800082e:	3750      	adds	r7, #80	@ 0x50
 8000830:	46bd      	mov	sp, r7
 8000832:	bd80      	pop	{r7, pc}
 8000834:	40023800 	.word	0x40023800
 8000838:	40007000 	.word	0x40007000

0800083c <Error_Handler>:
/**
  * @brief  This function is executed in case of error occurrence.
  * @retval None
  */
void Error_Handler(void)
{
 800083c:	b480      	push	{r7}
 800083e:	af00      	add	r7, sp, #0
  \details Disables IRQ interrupts by setting special-purpose register PRIMASK.
           Can only be executed in Privileged modes.
 */
__STATIC_FORCEINLINE void __disable_irq(void)
{
  __ASM volatile ("cpsid i" : : : "memory");
 8000840:	b672      	cpsid	i
}
 8000842:	bf00      	nop
  /* USER CODE BEGIN Error_Handler_Debug */
  /* User can add his own implementation to report the HAL error return state */
  __disable_irq();
  while (1)
 8000844:	bf00      	nop
 8000846:	e7fd      	b.n	8000844 <Error_Handler+0x8>

08000848 <HAL_MspInit>:
/* USER CODE END 0 */
/**
  * Initializes the Global MSP.
  */
void HAL_MspInit(void)
{
 8000848:	b480      	push	{r7}
 800084a:	b083      	sub	sp, #12
 800084c:	af00      	add	r7, sp, #0

  /* USER CODE BEGIN MspInit 0 */

  /* USER CODE END MspInit 0 */

  __HAL_RCC_SYSCFG_CLK_ENABLE();
 800084e:	2300      	movs	r3, #0
 8000850:	607b      	str	r3, [r7, #4]
 8000852:	4b10      	ldr	r3, [pc, #64]	@ (8000894 <HAL_MspInit+0x4c>)
 8000854:	6c5b      	ldr	r3, [r3, #68]	@ 0x44
 8000856:	4a0f      	ldr	r2, [pc, #60]	@ (8000894 <HAL_MspInit+0x4c>)
 8000858:	f443 4380 	orr.w	r3, r3, #16384	@ 0x4000
 800085c:	6453      	str	r3, [r2, #68]	@ 0x44
 800085e:	4b0d      	ldr	r3, [pc, #52]	@ (8000894 <HAL_MspInit+0x4c>)
 8000860:	6c5b      	ldr	r3, [r3, #68]	@ 0x44
 8000862:	f403 4380 	and.w	r3, r3, #16384	@ 0x4000
 8000866:	607b      	str	r3, [r7, #4]
 8000868:	687b      	ldr	r3, [r7, #4]
  __HAL_RCC_PWR_CLK_ENABLE();
 800086a:	2300      	movs	r3, #0
 800086c:	603b      	str	r3, [r7, #0]
 800086e:	4b09      	ldr	r3, [pc, #36]	@ (8000894 <HAL_MspInit+0x4c>)
 8000870:	6c1b      	ldr	r3, [r3, #64]	@ 0x40
 8000872:	4a08      	ldr	r2, [pc, #32]	@ (8000894 <HAL_MspInit+0x4c>)
 8000874:	f043 5380 	orr.w	r3, r3, #268435456	@ 0x10000000
 8000878:	6413      	str	r3, [r2, #64]	@ 0x40
 800087a:	4b06      	ldr	r3, [pc, #24]	@ (8000894 <HAL_MspInit+0x4c>)
 800087c:	6c1b      	ldr	r3, [r3, #64]	@ 0x40
 800087e:	f003 5380 	and.w	r3, r3, #268435456	@ 0x10000000
 8000882:	603b      	str	r3, [r7, #0]
 8000884:	683b      	ldr	r3, [r7, #0]
  /* System interrupt init*/

  /* USER CODE BEGIN MspInit 1 */

  /* USER CODE END MspInit 1 */
}
 8000886:	bf00      	nop
 8000888:	370c      	adds	r7, #12
 800088a:	46bd      	mov	sp, r7
 800088c:	f85d 7b04 	ldr.w	r7, [sp], #4
 8000890:	4770      	bx	lr
 8000892:	bf00      	nop
 8000894:	40023800 	.word	0x40023800

08000898 <NMI_Handler>:
/******************************************************************************/
/**
  * @brief This function handles Non maskable interrupt.
  */
void NMI_Handler(void)
{
 8000898:	b480      	push	{r7}
 800089a:	af00      	add	r7, sp, #0
  /* USER CODE BEGIN NonMaskableInt_IRQn 0 */

  /* USER CODE END NonMaskableInt_IRQn 0 */
  /* USER CODE BEGIN NonMaskableInt_IRQn 1 */
   while (1)
 800089c:	bf00      	nop
 800089e:	e7fd      	b.n	800089c <NMI_Handler+0x4>

080008a0 <HardFault_Handler>:

/**
  * @brief This function handles Hard fault interrupt.
  */
void HardFault_Handler(void)
{
 80008a0:	b480      	push	{r7}
 80008a2:	af00      	add	r7, sp, #0
  /* USER CODE BEGIN HardFault_IRQn 0 */

  /* USER CODE END HardFault_IRQn 0 */
  while (1)
 80008a4:	bf00      	nop
 80008a6:	e7fd      	b.n	80008a4 <HardFault_Handler+0x4>

080008a8 <MemManage_Handler>:

/**
  * @brief This function handles Memory management fault.
  */
void MemManage_Handler(void)
{
 80008a8:	b480      	push	{r7}
 80008aa:	af00      	add	r7, sp, #0
  /* USER CODE BEGIN MemoryManagement_IRQn 0 */

  /* USER CODE END MemoryManagement_IRQn 0 */
  while (1)
 80008ac:	bf00      	nop
 80008ae:	e7fd      	b.n	80008ac <MemManage_Handler+0x4>

080008b0 <BusFault_Handler>:

/**
  * @brief This function handles Pre-fetch fault, memory access fault.
  */
void BusFault_Handler(void)
{
 80008b0:	b480      	push	{r7}
 80008b2:	af00      	add	r7, sp, #0
  /* USER CODE BEGIN BusFault_IRQn 0 */

  /* USER CODE END BusFault_IRQn 0 */
  while (1)
 80008b4:	bf00      	nop
 80008b6:	e7fd      	b.n	80008b4 <BusFault_Handler+0x4>

080008b8 <UsageFault_Handler>:

/**
  * @brief This function handles Undefined instruction or illegal state.
  */
void UsageFault_Handler(void)
{
 80008b8:	b480      	push	{r7}
 80008ba:	af00      	add	r7, sp, #0
  /* USER CODE BEGIN UsageFault_IRQn 0 */

  /* USER CODE END UsageFault_IRQn 0 */
  while (1)
 80008bc:	bf00      	nop
 80008be:	e7fd      	b.n	80008bc <UsageFault_Handler+0x4>

080008c0 <SVC_Handler>:

/**
  * @brief This function handles System service call via SWI instruction.
  */
void SVC_Handler(void)
{
 80008c0:	b480      	push	{r7}
 80008c2:	af00      	add	r7, sp, #0

  /* USER CODE END SVCall_IRQn 0 */
  /* USER CODE BEGIN SVCall_IRQn 1 */

  /* USER CODE END SVCall_IRQn 1 */
}
 80008c4:	bf00      	nop
 80008c6:	46bd      	mov	sp, r7
 80008c8:	f85d 7b04 	ldr.w	r7, [sp], #4
 80008cc:	4770      	bx	lr

080008ce <DebugMon_Handler>:

/**
  * @brief This function handles Debug monitor.
  */
void DebugMon_Handler(void)
{
 80008ce:	b480      	push	{r7}
 80008d0:	af00      	add	r7, sp, #0

  /* USER CODE END DebugMonitor_IRQn 0 */
  /* USER CODE BEGIN DebugMonitor_IRQn 1 */

  /* USER CODE END DebugMonitor_IRQn 1 */
}
 80008d2:	bf00      	nop
 80008d4:	46bd      	mov	sp, r7
 80008d6:	f85d 7b04 	ldr.w	r7, [sp], #4
 80008da:	4770      	bx	lr

080008dc <PendSV_Handler>:

/**
  * @brief This function handles Pendable request for system service.
  */
void PendSV_Handler(void)
{
 80008dc:	b480      	push	{r7}
 80008de:	af00      	add	r7, sp, #0

  /* USER CODE END PendSV_IRQn 0 */
  /* USER CODE BEGIN PendSV_IRQn 1 */

  /* USER CODE END PendSV_IRQn 1 */
}
 80008e0:	bf00      	nop
 80008e2:	46bd      	mov	sp, r7
 80008e4:	f85d 7b04 	ldr.w	r7, [sp], #4
 80008e8:	4770      	bx	lr

080008ea <SysTick_Handler>:

/**
  * @brief This function handles System tick timer.
  */
void SysTick_Handler(void)
{
 80008ea:	b580      	push	{r7, lr}
 80008ec:	af00      	add	r7, sp, #0
  /* USER CODE BEGIN SysTick_IRQn 0 */

  /* USER CODE END SysTick_IRQn 0 */
  HAL_IncTick();
 80008ee:	f000 f9e1 	bl	8000cb4 <HAL_IncTick>
  /* USER CODE BEGIN SysTick_IRQn 1 */

  /* USER CODE END SysTick_IRQn 1 */
}
 80008f2:	bf00      	nop
 80008f4:	bd80      	pop	{r7, pc}
	...

080008f8 <DMA2_Stream5_IRQHandler>:

/**
  * @brief This function handles DMA2 stream5 global interrupt.
  */
void DMA2_Stream5_IRQHandler(void)
{
 80008f8:	b580      	push	{r7, lr}
 80008fa:	af00      	add	r7, sp, #0
  /* USER CODE BEGIN DMA2_Stream5_IRQn 0 */

  /* USER CODE END DMA2_Stream5_IRQn 0 */
  HAL_DMA_IRQHandler(&hdma_tim1_up);
 80008fc:	4802      	ldr	r0, [pc, #8]	@ (8000908 <DMA2_Stream5_IRQHandler+0x10>)
 80008fe:	f000 fc11 	bl	8001124 <HAL_DMA_IRQHandler>
  /* USER CODE BEGIN DMA2_Stream5_IRQn 1 */

  /* USER CODE END DMA2_Stream5_IRQn 1 */
}
 8000902:	bf00      	nop
 8000904:	bd80      	pop	{r7, pc}
 8000906:	bf00      	nop
 8000908:	20000528 	.word	0x20000528

0800090c <SystemInit>:
  *         configuration.
  * @param  None
  * @retval None
  */
void SystemInit(void)
{
 800090c:	b480      	push	{r7}
 800090e:	af00      	add	r7, sp, #0
  /* FPU settings ------------------------------------------------------------*/
  #if (__FPU_PRESENT == 1) && (__FPU_USED == 1)
    SCB->CPACR |= ((3UL << 10*2)|(3UL << 11*2));  /* set CP10 and CP11 Full Access */
 8000910:	4b06      	ldr	r3, [pc, #24]	@ (800092c <SystemInit+0x20>)
 8000912:	f8d3 3088 	ldr.w	r3, [r3, #136]	@ 0x88
 8000916:	4a05      	ldr	r2, [pc, #20]	@ (800092c <SystemInit+0x20>)
 8000918:	f443 0370 	orr.w	r3, r3, #15728640	@ 0xf00000
 800091c:	f8c2 3088 	str.w	r3, [r2, #136]	@ 0x88

  /* Configure the Vector Table location -------------------------------------*/
#if defined(USER_VECT_TAB_ADDRESS)
  SCB->VTOR = VECT_TAB_BASE_ADDRESS | VECT_TAB_OFFSET; /* Vector Table Relocation in Internal SRAM */
#endif /* USER_VECT_TAB_ADDRESS */
}
 8000920:	bf00      	nop
 8000922:	46bd      	mov	sp, r7
 8000924:	f85d 7b04 	ldr.w	r7, [sp], #4
 8000928:	4770      	bx	lr
 800092a:	bf00      	nop
 800092c:	e000ed00 	.word	0xe000ed00

08000930 <MX_TIM1_Init>:
TIM_HandleTypeDef htim1;
DMA_HandleTypeDef hdma_tim1_up;

/* TIM1 init function */
void MX_TIM1_Init(void)
{
 8000930:	b580      	push	{r7, lr}
 8000932:	b096      	sub	sp, #88	@ 0x58
 8000934:	af00      	add	r7, sp, #0

  /* USER CODE BEGIN TIM1_Init 0 */

  /* USER CODE END TIM1_Init 0 */

  TIM_ClockConfigTypeDef sClockSourceConfig = {0};
 8000936:	f107 0348 	add.w	r3, r7, #72	@ 0x48
 800093a:	2200      	movs	r2, #0
 800093c:	601a      	str	r2, [r3, #0]
 800093e:	605a      	str	r2, [r3, #4]
 8000940:	609a      	str	r2, [r3, #8]
 8000942:	60da      	str	r2, [r3, #12]
  TIM_MasterConfigTypeDef sMasterConfig = {0};
 8000944:	f107 0340 	add.w	r3, r7, #64	@ 0x40
 8000948:	2200      	movs	r2, #0
 800094a:	601a      	str	r2, [r3, #0]
 800094c:	605a      	str	r2, [r3, #4]
  TIM_OC_InitTypeDef sConfigOC = {0};
 800094e:	f107 0324 	add.w	r3, r7, #36	@ 0x24
 8000952:	2200      	movs	r2, #0
 8000954:	601a      	str	r2, [r3, #0]
 8000956:	605a      	str	r2, [r3, #4]
 8000958:	609a      	str	r2, [r3, #8]
 800095a:	60da      	str	r2, [r3, #12]
 800095c:	611a      	str	r2, [r3, #16]
 800095e:	615a      	str	r2, [r3, #20]
 8000960:	619a      	str	r2, [r3, #24]
  TIM_BreakDeadTimeConfigTypeDef sBreakDeadTimeConfig = {0};
 8000962:	1d3b      	adds	r3, r7, #4
 8000964:	2220      	movs	r2, #32
 8000966:	2100      	movs	r1, #0
 8000968:	4618      	mov	r0, r3
 800096a:	f002 fd99 	bl	80034a0 <memset>

  /* USER CODE BEGIN TIM1_Init 1 */

  /* USER CODE END TIM1_Init 1 */
  htim1.Instance = TIM1;
 800096e:	4b4a      	ldr	r3, [pc, #296]	@ (8000a98 <MX_TIM1_Init+0x168>)
 8000970:	4a4a      	ldr	r2, [pc, #296]	@ (8000a9c <MX_TIM1_Init+0x16c>)
 8000972:	601a      	str	r2, [r3, #0]
  htim1.Init.Prescaler = 1;
 8000974:	4b48      	ldr	r3, [pc, #288]	@ (8000a98 <MX_TIM1_Init+0x168>)
 8000976:	2201      	movs	r2, #1
 8000978:	605a      	str	r2, [r3, #4]
  htim1.Init.CounterMode = TIM_COUNTERMODE_UP;
 800097a:	4b47      	ldr	r3, [pc, #284]	@ (8000a98 <MX_TIM1_Init+0x168>)
 800097c:	2200      	movs	r2, #0
 800097e:	609a      	str	r2, [r3, #8]
  htim1.Init.Period = 10000-1;
 8000980:	4b45      	ldr	r3, [pc, #276]	@ (8000a98 <MX_TIM1_Init+0x168>)
 8000982:	f242 720f 	movw	r2, #9999	@ 0x270f
 8000986:	60da      	str	r2, [r3, #12]
  htim1.Init.ClockDivision = TIM_CLOCKDIVISION_DIV1;
 8000988:	4b43      	ldr	r3, [pc, #268]	@ (8000a98 <MX_TIM1_Init+0x168>)
 800098a:	2200      	movs	r2, #0
 800098c:	611a      	str	r2, [r3, #16]
  htim1.Init.RepetitionCounter = 0;
 800098e:	4b42      	ldr	r3, [pc, #264]	@ (8000a98 <MX_TIM1_Init+0x168>)
 8000990:	2200      	movs	r2, #0
 8000992:	615a      	str	r2, [r3, #20]
  htim1.Init.AutoReloadPreload = TIM_AUTORELOAD_PRELOAD_DISABLE;
 8000994:	4b40      	ldr	r3, [pc, #256]	@ (8000a98 <MX_TIM1_Init+0x168>)
 8000996:	2200      	movs	r2, #0
 8000998:	619a      	str	r2, [r3, #24]
  if (HAL_TIM_Base_Init(&htim1) != HAL_OK)
 800099a:	483f      	ldr	r0, [pc, #252]	@ (8000a98 <MX_TIM1_Init+0x168>)
 800099c:	f001 fbd4 	bl	8002148 <HAL_TIM_Base_Init>
 80009a0:	4603      	mov	r3, r0
 80009a2:	2b00      	cmp	r3, #0
 80009a4:	d001      	beq.n	80009aa <MX_TIM1_Init+0x7a>
  {
    Error_Handler();
 80009a6:	f7ff ff49 	bl	800083c <Error_Handler>
  }
  sClockSourceConfig.ClockSource = TIM_CLOCKSOURCE_INTERNAL;
 80009aa:	f44f 5380 	mov.w	r3, #4096	@ 0x1000
 80009ae:	64bb      	str	r3, [r7, #72]	@ 0x48
  if (HAL_TIM_ConfigClockSource(&htim1, &sClockSourceConfig) != HAL_OK)
 80009b0:	f107 0348 	add.w	r3, r7, #72	@ 0x48
 80009b4:	4619      	mov	r1, r3
 80009b6:	4838      	ldr	r0, [pc, #224]	@ (8000a98 <MX_TIM1_Init+0x168>)
 80009b8:	f001 ff34 	bl	8002824 <HAL_TIM_ConfigClockSource>
 80009bc:	4603      	mov	r3, r0
 80009be:	2b00      	cmp	r3, #0
 80009c0:	d001      	beq.n	80009c6 <MX_TIM1_Init+0x96>
  {
    Error_Handler();
 80009c2:	f7ff ff3b 	bl	800083c <Error_Handler>
  }
  if (HAL_TIM_PWM_Init(&htim1) != HAL_OK)
 80009c6:	4834      	ldr	r0, [pc, #208]	@ (8000a98 <MX_TIM1_Init+0x168>)
 80009c8:	f001 fc0d 	bl	80021e6 <HAL_TIM_PWM_Init>
 80009cc:	4603      	mov	r3, r0
 80009ce:	2b00      	cmp	r3, #0
 80009d0:	d001      	beq.n	80009d6 <MX_TIM1_Init+0xa6>
  {
    Error_Handler();
 80009d2:	f7ff ff33 	bl	800083c <Error_Handler>
  }
  sMasterConfig.MasterOutputTrigger = TIM_TRGO_RESET;
 80009d6:	2300      	movs	r3, #0
 80009d8:	643b      	str	r3, [r7, #64]	@ 0x40
  sMasterConfig.MasterSlaveMode = TIM_MASTERSLAVEMODE_DISABLE;
 80009da:	2300      	movs	r3, #0
 80009dc:	647b      	str	r3, [r7, #68]	@ 0x44
  if (HAL_TIMEx_MasterConfigSynchronization(&htim1, &sMasterConfig) != HAL_OK)
 80009de:	f107 0340 	add.w	r3, r7, #64	@ 0x40
 80009e2:	4619      	mov	r1, r3
 80009e4:	482c      	ldr	r0, [pc, #176]	@ (8000a98 <MX_TIM1_Init+0x168>)
 80009e6:	f002 fc1d 	bl	8003224 <HAL_TIMEx_MasterConfigSynchronization>
 80009ea:	4603      	mov	r3, r0
 80009ec:	2b00      	cmp	r3, #0
 80009ee:	d001      	beq.n	80009f4 <MX_TIM1_Init+0xc4>
  {
    Error_Handler();
 80009f0:	f7ff ff24 	bl	800083c <Error_Handler>
  }
  sConfigOC.OCMode = TIM_OCMODE_PWM2;
 80009f4:	2370      	movs	r3, #112	@ 0x70
 80009f6:	627b      	str	r3, [r7, #36]	@ 0x24
  sConfigOC.Pulse = 0;
 80009f8:	2300      	movs	r3, #0
 80009fa:	62bb      	str	r3, [r7, #40]	@ 0x28
  sConfigOC.OCPolarity = TIM_OCPOLARITY_HIGH;
 80009fc:	2300      	movs	r3, #0
 80009fe:	62fb      	str	r3, [r7, #44]	@ 0x2c
  sConfigOC.OCNPolarity = TIM_OCNPOLARITY_HIGH;
 8000a00:	2300      	movs	r3, #0
 8000a02:	633b      	str	r3, [r7, #48]	@ 0x30
  sConfigOC.OCFastMode = TIM_OCFAST_DISABLE;
 8000a04:	2300      	movs	r3, #0
 8000a06:	637b      	str	r3, [r7, #52]	@ 0x34
  sConfigOC.OCIdleState = TIM_OCIDLESTATE_RESET;
 8000a08:	2300      	movs	r3, #0
 8000a0a:	63bb      	str	r3, [r7, #56]	@ 0x38
  sConfigOC.OCNIdleState = TIM_OCNIDLESTATE_RESET;
 8000a0c:	2300      	movs	r3, #0
 8000a0e:	63fb      	str	r3, [r7, #60]	@ 0x3c
  if (HAL_TIM_PWM_ConfigChannel(&htim1, &sConfigOC, TIM_CHANNEL_1) != HAL_OK)
 8000a10:	f107 0324 	add.w	r3, r7, #36	@ 0x24
 8000a14:	2200      	movs	r2, #0
 8000a16:	4619      	mov	r1, r3
 8000a18:	481f      	ldr	r0, [pc, #124]	@ (8000a98 <MX_TIM1_Init+0x168>)
 8000a1a:	f001 fced 	bl	80023f8 <HAL_TIM_PWM_ConfigChannel>
 8000a1e:	4603      	mov	r3, r0
 8000a20:	2b00      	cmp	r3, #0
 8000a22:	d001      	beq.n	8000a28 <MX_TIM1_Init+0xf8>
  {
    Error_Handler();
 8000a24:	f7ff ff0a 	bl	800083c <Error_Handler>
  }
  if (HAL_TIM_PWM_ConfigChannel(&htim1, &sConfigOC, TIM_CHANNEL_2) != HAL_OK)
 8000a28:	f107 0324 	add.w	r3, r7, #36	@ 0x24
 8000a2c:	2204      	movs	r2, #4
 8000a2e:	4619      	mov	r1, r3
 8000a30:	4819      	ldr	r0, [pc, #100]	@ (8000a98 <MX_TIM1_Init+0x168>)
 8000a32:	f001 fce1 	bl	80023f8 <HAL_TIM_PWM_ConfigChannel>
 8000a36:	4603      	mov	r3, r0
 8000a38:	2b00      	cmp	r3, #0
 8000a3a:	d001      	beq.n	8000a40 <MX_TIM1_Init+0x110>
  {
    Error_Handler();
 8000a3c:	f7ff fefe 	bl	800083c <Error_Handler>
  }
  if (HAL_TIM_PWM_ConfigChannel(&htim1, &sConfigOC, TIM_CHANNEL_3) != HAL_OK)
 8000a40:	f107 0324 	add.w	r3, r7, #36	@ 0x24
 8000a44:	2208      	movs	r2, #8
 8000a46:	4619      	mov	r1, r3
 8000a48:	4813      	ldr	r0, [pc, #76]	@ (8000a98 <MX_TIM1_Init+0x168>)
 8000a4a:	f001 fcd5 	bl	80023f8 <HAL_TIM_PWM_ConfigChannel>
 8000a4e:	4603      	mov	r3, r0
 8000a50:	2b00      	cmp	r3, #0
 8000a52:	d001      	beq.n	8000a58 <MX_TIM1_Init+0x128>
  {
    Error_Handler();
 8000a54:	f7ff fef2 	bl	800083c <Error_Handler>
  }
  sBreakDeadTimeConfig.OffStateRunMode = TIM_OSSR_DISABLE;
 8000a58:	2300      	movs	r3, #0
 8000a5a:	607b      	str	r3, [r7, #4]
  sBreakDeadTimeConfig.OffStateIDLEMode = TIM_OSSI_DISABLE;
 8000a5c:	2300      	movs	r3, #0
 8000a5e:	60bb      	str	r3, [r7, #8]
  sBreakDeadTimeConfig.LockLevel = TIM_LOCKLEVEL_OFF;
 8000a60:	2300      	movs	r3, #0
 8000a62:	60fb      	str	r3, [r7, #12]
  sBreakDeadTimeConfig.DeadTime = 0;
 8000a64:	2300      	movs	r3, #0
 8000a66:	613b      	str	r3, [r7, #16]
  sBreakDeadTimeConfig.BreakState = TIM_BREAK_DISABLE;
 8000a68:	2300      	movs	r3, #0
 8000a6a:	617b      	str	r3, [r7, #20]
  sBreakDeadTimeConfig.BreakPolarity = TIM_BREAKPOLARITY_HIGH;
 8000a6c:	f44f 5300 	mov.w	r3, #8192	@ 0x2000
 8000a70:	61bb      	str	r3, [r7, #24]
  sBreakDeadTimeConfig.AutomaticOutput = TIM_AUTOMATICOUTPUT_DISABLE;
 8000a72:	2300      	movs	r3, #0
 8000a74:	623b      	str	r3, [r7, #32]
  if (HAL_TIMEx_ConfigBreakDeadTime(&htim1, &sBreakDeadTimeConfig) != HAL_OK)
 8000a76:	1d3b      	adds	r3, r7, #4
 8000a78:	4619      	mov	r1, r3
 8000a7a:	4807      	ldr	r0, [pc, #28]	@ (8000a98 <MX_TIM1_Init+0x168>)
 8000a7c:	f002 fc40 	bl	8003300 <HAL_TIMEx_ConfigBreakDeadTime>
 8000a80:	4603      	mov	r3, r0
 8000a82:	2b00      	cmp	r3, #0
 8000a84:	d001      	beq.n	8000a8a <MX_TIM1_Init+0x15a>
  {
    Error_Handler();
 8000a86:	f7ff fed9 	bl	800083c <Error_Handler>
  }
  /* USER CODE BEGIN TIM1_Init 2 */

  /* USER CODE END TIM1_Init 2 */
  HAL_TIM_MspPostInit(&htim1);
 8000a8a:	4803      	ldr	r0, [pc, #12]	@ (8000a98 <MX_TIM1_Init+0x168>)
 8000a8c:	f000 f85c 	bl	8000b48 <HAL_TIM_MspPostInit>

}
 8000a90:	bf00      	nop
 8000a92:	3758      	adds	r7, #88	@ 0x58
 8000a94:	46bd      	mov	sp, r7
 8000a96:	bd80      	pop	{r7, pc}
 8000a98:	200004e0 	.word	0x200004e0
 8000a9c:	40010000 	.word	0x40010000

08000aa0 <HAL_TIM_Base_MspInit>:

void HAL_TIM_Base_MspInit(TIM_HandleTypeDef* tim_baseHandle)
{
 8000aa0:	b580      	push	{r7, lr}
 8000aa2:	b084      	sub	sp, #16
 8000aa4:	af00      	add	r7, sp, #0
 8000aa6:	6078      	str	r0, [r7, #4]

  if(tim_baseHandle->Instance==TIM1)
 8000aa8:	687b      	ldr	r3, [r7, #4]
 8000aaa:	681b      	ldr	r3, [r3, #0]
 8000aac:	4a22      	ldr	r2, [pc, #136]	@ (8000b38 <HAL_TIM_Base_MspInit+0x98>)
 8000aae:	4293      	cmp	r3, r2
 8000ab0:	d13e      	bne.n	8000b30 <HAL_TIM_Base_MspInit+0x90>
  {
  /* USER CODE BEGIN TIM1_MspInit 0 */

  /* USER CODE END TIM1_MspInit 0 */
    /* TIM1 clock enable */
    __HAL_RCC_TIM1_CLK_ENABLE();
 8000ab2:	2300      	movs	r3, #0
 8000ab4:	60fb      	str	r3, [r7, #12]
 8000ab6:	4b21      	ldr	r3, [pc, #132]	@ (8000b3c <HAL_TIM_Base_MspInit+0x9c>)
 8000ab8:	6c5b      	ldr	r3, [r3, #68]	@ 0x44
 8000aba:	4a20      	ldr	r2, [pc, #128]	@ (8000b3c <HAL_TIM_Base_MspInit+0x9c>)
 8000abc:	f043 0301 	orr.w	r3, r3, #1
 8000ac0:	6453      	str	r3, [r2, #68]	@ 0x44
 8000ac2:	4b1e      	ldr	r3, [pc, #120]	@ (8000b3c <HAL_TIM_Base_MspInit+0x9c>)
 8000ac4:	6c5b      	ldr	r3, [r3, #68]	@ 0x44
 8000ac6:	f003 0301 	and.w	r3, r3, #1
 8000aca:	60fb      	str	r3, [r7, #12]
 8000acc:	68fb      	ldr	r3, [r7, #12]

    /* TIM1 DMA Init */
    /* TIM1_UP Init */
    hdma_tim1_up.Instance = DMA2_Stream5;
 8000ace:	4b1c      	ldr	r3, [pc, #112]	@ (8000b40 <HAL_TIM_Base_MspInit+0xa0>)
 8000ad0:	4a1c      	ldr	r2, [pc, #112]	@ (8000b44 <HAL_TIM_Base_MspInit+0xa4>)
 8000ad2:	601a      	str	r2, [r3, #0]
    hdma_tim1_up.Init.Channel = DMA_CHANNEL_6;
 8000ad4:	4b1a      	ldr	r3, [pc, #104]	@ (8000b40 <HAL_TIM_Base_MspInit+0xa0>)
 8000ad6:	f04f 6240 	mov.w	r2, #201326592	@ 0xc000000
 8000ada:	605a      	str	r2, [r3, #4]
    hdma_tim1_up.Init.Direction = DMA_MEMORY_TO_PERIPH;
 8000adc:	4b18      	ldr	r3, [pc, #96]	@ (8000b40 <HAL_TIM_Base_MspInit+0xa0>)
 8000ade:	2240      	movs	r2, #64	@ 0x40
 8000ae0:	609a      	str	r2, [r3, #8]
    hdma_tim1_up.Init.PeriphInc = DMA_PINC_DISABLE;
 8000ae2:	4b17      	ldr	r3, [pc, #92]	@ (8000b40 <HAL_TIM_Base_MspInit+0xa0>)
 8000ae4:	2200      	movs	r2, #0
 8000ae6:	60da      	str	r2, [r3, #12]
    hdma_tim1_up.Init.MemInc = DMA_MINC_ENABLE;
 8000ae8:	4b15      	ldr	r3, [pc, #84]	@ (8000b40 <HAL_TIM_Base_MspInit+0xa0>)
 8000aea:	f44f 6280 	mov.w	r2, #1024	@ 0x400
 8000aee:	611a      	str	r2, [r3, #16]
    hdma_tim1_up.Init.PeriphDataAlignment = DMA_PDATAALIGN_WORD;
 8000af0:	4b13      	ldr	r3, [pc, #76]	@ (8000b40 <HAL_TIM_Base_MspInit+0xa0>)
 8000af2:	f44f 5280 	mov.w	r2, #4096	@ 0x1000
 8000af6:	615a      	str	r2, [r3, #20]
    hdma_tim1_up.Init.MemDataAlignment = DMA_MDATAALIGN_WORD;
 8000af8:	4b11      	ldr	r3, [pc, #68]	@ (8000b40 <HAL_TIM_Base_MspInit+0xa0>)
 8000afa:	f44f 4280 	mov.w	r2, #16384	@ 0x4000
 8000afe:	619a      	str	r2, [r3, #24]
    hdma_tim1_up.Init.Mode = DMA_CIRCULAR;
 8000b00:	4b0f      	ldr	r3, [pc, #60]	@ (8000b40 <HAL_TIM_Base_MspInit+0xa0>)
 8000b02:	f44f 7280 	mov.w	r2, #256	@ 0x100
 8000b06:	61da      	str	r2, [r3, #28]
    hdma_tim1_up.Init.Priority = DMA_PRIORITY_LOW;
 8000b08:	4b0d      	ldr	r3, [pc, #52]	@ (8000b40 <HAL_TIM_Base_MspInit+0xa0>)
 8000b0a:	2200      	movs	r2, #0
 8000b0c:	621a      	str	r2, [r3, #32]
    hdma_tim1_up.Init.FIFOMode = DMA_FIFOMODE_DISABLE;
 8000b0e:	4b0c      	ldr	r3, [pc, #48]	@ (8000b40 <HAL_TIM_Base_MspInit+0xa0>)
 8000b10:	2200      	movs	r2, #0
 8000b12:	625a      	str	r2, [r3, #36]	@ 0x24
    if (HAL_DMA_Init(&hdma_tim1_up) != HAL_OK)
 8000b14:	480a      	ldr	r0, [pc, #40]	@ (8000b40 <HAL_TIM_Base_MspInit+0xa0>)
 8000b16:	f000 f9ff 	bl	8000f18 <HAL_DMA_Init>
 8000b1a:	4603      	mov	r3, r0
 8000b1c:	2b00      	cmp	r3, #0
 8000b1e:	d001      	beq.n	8000b24 <HAL_TIM_Base_MspInit+0x84>
    {
      Error_Handler();
 8000b20:	f7ff fe8c 	bl	800083c <Error_Handler>
    }

    __HAL_LINKDMA(tim_baseHandle,hdma[TIM_DMA_ID_UPDATE],hdma_tim1_up);
 8000b24:	687b      	ldr	r3, [r7, #4]
 8000b26:	4a06      	ldr	r2, [pc, #24]	@ (8000b40 <HAL_TIM_Base_MspInit+0xa0>)
 8000b28:	621a      	str	r2, [r3, #32]
 8000b2a:	4a05      	ldr	r2, [pc, #20]	@ (8000b40 <HAL_TIM_Base_MspInit+0xa0>)
 8000b2c:	687b      	ldr	r3, [r7, #4]
 8000b2e:	6393      	str	r3, [r2, #56]	@ 0x38

  /* USER CODE BEGIN TIM1_MspInit 1 */

  /* USER CODE END TIM1_MspInit 1 */
  }
}
 8000b30:	bf00      	nop
 8000b32:	3710      	adds	r7, #16
 8000b34:	46bd      	mov	sp, r7
 8000b36:	bd80      	pop	{r7, pc}
 8000b38:	40010000 	.word	0x40010000
 8000b3c:	40023800 	.word	0x40023800
 8000b40:	20000528 	.word	0x20000528
 8000b44:	40026488 	.word	0x40026488

08000b48 <HAL_TIM_MspPostInit>:
void HAL_TIM_MspPostInit(TIM_HandleTypeDef* timHandle)
{
 8000b48:	b580      	push	{r7, lr}
 8000b4a:	b088      	sub	sp, #32
 8000b4c:	af00      	add	r7, sp, #0
 8000b4e:	6078      	str	r0, [r7, #4]

  GPIO_InitTypeDef GPIO_InitStruct = {0};
 8000b50:	f107 030c 	add.w	r3, r7, #12
 8000b54:	2200      	movs	r2, #0
 8000b56:	601a      	str	r2, [r3, #0]
 8000b58:	605a      	str	r2, [r3, #4]
 8000b5a:	609a      	str	r2, [r3, #8]
 8000b5c:	60da      	str	r2, [r3, #12]
 8000b5e:	611a      	str	r2, [r3, #16]
  if(timHandle->Instance==TIM1)
 8000b60:	687b      	ldr	r3, [r7, #4]
 8000b62:	681b      	ldr	r3, [r3, #0]
 8000b64:	4a12      	ldr	r2, [pc, #72]	@ (8000bb0 <HAL_TIM_MspPostInit+0x68>)
 8000b66:	4293      	cmp	r3, r2
 8000b68:	d11e      	bne.n	8000ba8 <HAL_TIM_MspPostInit+0x60>
  {
  /* USER CODE BEGIN TIM1_MspPostInit 0 */

  /* USER CODE END TIM1_MspPostInit 0 */

    __HAL_RCC_GPIOA_CLK_ENABLE();
 8000b6a:	2300      	movs	r3, #0
 8000b6c:	60bb      	str	r3, [r7, #8]
 8000b6e:	4b11      	ldr	r3, [pc, #68]	@ (8000bb4 <HAL_TIM_MspPostInit+0x6c>)
 8000b70:	6b1b      	ldr	r3, [r3, #48]	@ 0x30
 8000b72:	4a10      	ldr	r2, [pc, #64]	@ (8000bb4 <HAL_TIM_MspPostInit+0x6c>)
 8000b74:	f043 0301 	orr.w	r3, r3, #1
 8000b78:	6313      	str	r3, [r2, #48]	@ 0x30
 8000b7a:	4b0e      	ldr	r3, [pc, #56]	@ (8000bb4 <HAL_TIM_MspPostInit+0x6c>)
 8000b7c:	6b1b      	ldr	r3, [r3, #48]	@ 0x30
 8000b7e:	f003 0301 	and.w	r3, r3, #1
 8000b82:	60bb      	str	r3, [r7, #8]
 8000b84:	68bb      	ldr	r3, [r7, #8]
    /**TIM1 GPIO Configuration
    PA8     ------> TIM1_CH1
    PA9     ------> TIM1_CH2
    PA10     ------> TIM1_CH3
    */
    GPIO_InitStruct.Pin = GPIO_PIN_8|GPIO_PIN_9|GPIO_PIN_10;
 8000b86:	f44f 63e0 	mov.w	r3, #1792	@ 0x700
 8000b8a:	60fb      	str	r3, [r7, #12]
    GPIO_InitStruct.Mode = GPIO_MODE_AF_PP;
 8000b8c:	2302      	movs	r3, #2
 8000b8e:	613b      	str	r3, [r7, #16]
    GPIO_InitStruct.Pull = GPIO_NOPULL;
 8000b90:	2300      	movs	r3, #0
 8000b92:	617b      	str	r3, [r7, #20]
    GPIO_InitStruct.Speed = GPIO_SPEED_FREQ_LOW;
 8000b94:	2300      	movs	r3, #0
 8000b96:	61bb      	str	r3, [r7, #24]
    GPIO_InitStruct.Alternate = GPIO_AF1_TIM1;
 8000b98:	2301      	movs	r3, #1
 8000b9a:	61fb      	str	r3, [r7, #28]
    HAL_GPIO_Init(GPIOA, &GPIO_InitStruct);
 8000b9c:	f107 030c 	add.w	r3, r7, #12
 8000ba0:	4619      	mov	r1, r3
 8000ba2:	4805      	ldr	r0, [pc, #20]	@ (8000bb8 <HAL_TIM_MspPostInit+0x70>)
 8000ba4:	f000 fd28 	bl	80015f8 <HAL_GPIO_Init>
  /* USER CODE BEGIN TIM1_MspPostInit 1 */

  /* USER CODE END TIM1_MspPostInit 1 */
  }

}
 8000ba8:	bf00      	nop
 8000baa:	3720      	adds	r7, #32
 8000bac:	46bd      	mov	sp, r7
 8000bae:	bd80      	pop	{r7, pc}
 8000bb0:	40010000 	.word	0x40010000
 8000bb4:	40023800 	.word	0x40023800
 8000bb8:	40020000 	.word	0x40020000

08000bbc <Reset_Handler>:

    .section  .text.Reset_Handler
  .weak  Reset_Handler
  .type  Reset_Handler, %function
Reset_Handler:  
  ldr   sp, =_estack    		 /* set stack pointer */
 8000bbc:	f8df d034 	ldr.w	sp, [pc, #52]	@ 8000bf4 <LoopFillZerobss+0xe>

/* Call the clock system initialization function.*/
  bl  SystemInit   
 8000bc0:	f7ff fea4 	bl	800090c <SystemInit>

/* Copy the data segment initializers from flash to SRAM */  
  ldr r0, =_sdata
 8000bc4:	480c      	ldr	r0, [pc, #48]	@ (8000bf8 <LoopFillZerobss+0x12>)
  ldr r1, =_edata
 8000bc6:	490d      	ldr	r1, [pc, #52]	@ (8000bfc <LoopFillZerobss+0x16>)
  ldr r2, =_sidata
 8000bc8:	4a0d      	ldr	r2, [pc, #52]	@ (8000c00 <LoopFillZerobss+0x1a>)
  movs r3, #0
 8000bca:	2300      	movs	r3, #0
  b LoopCopyDataInit
 8000bcc:	e002      	b.n	8000bd4 <LoopCopyDataInit>

08000bce <CopyDataInit>:

CopyDataInit:
  ldr r4, [r2, r3]
 8000bce:	58d4      	ldr	r4, [r2, r3]
  str r4, [r0, r3]
 8000bd0:	50c4      	str	r4, [r0, r3]
  adds r3, r3, #4
 8000bd2:	3304      	adds	r3, #4

08000bd4 <LoopCopyDataInit>:

LoopCopyDataInit:
  adds r4, r0, r3
 8000bd4:	18c4      	adds	r4, r0, r3
  cmp r4, r1
 8000bd6:	428c      	cmp	r4, r1
  bcc CopyDataInit
 8000bd8:	d3f9      	bcc.n	8000bce <CopyDataInit>
  
/* Zero fill the bss segment. */
  ldr r2, =_sbss
 8000bda:	4a0a      	ldr	r2, [pc, #40]	@ (8000c04 <LoopFillZerobss+0x1e>)
  ldr r4, =_ebss
 8000bdc:	4c0a      	ldr	r4, [pc, #40]	@ (8000c08 <LoopFillZerobss+0x22>)
  movs r3, #0
 8000bde:	2300      	movs	r3, #0
  b LoopFillZerobss
 8000be0:	e001      	b.n	8000be6 <LoopFillZerobss>

08000be2 <FillZerobss>:

FillZerobss:
  str  r3, [r2]
 8000be2:	6013      	str	r3, [r2, #0]
  adds r2, r2, #4
 8000be4:	3204      	adds	r2, #4

08000be6 <LoopFillZerobss>:

LoopFillZerobss:
  cmp r2, r4
 8000be6:	42a2      	cmp	r2, r4
  bcc FillZerobss
 8000be8:	d3fb      	bcc.n	8000be2 <FillZerobss>

/* Call static constructors */
    bl __libc_init_array
 8000bea:	f002 fc61 	bl	80034b0 <__libc_init_array>
/* Call the application's entry point.*/
  bl  main
 8000bee:	f7ff fcb3 	bl	8000558 <main>
  bx  lr    
 8000bf2:	4770      	bx	lr
  ldr   sp, =_estack    		 /* set stack pointer */
 8000bf4:	20020000 	.word	0x20020000
  ldr r0, =_sdata
 8000bf8:	20000000 	.word	0x20000000
  ldr r1, =_edata
 8000bfc:	20000010 	.word	0x20000010
  ldr r2, =_sidata
 8000c00:	08003d3c 	.word	0x08003d3c
  ldr r2, =_sbss
 8000c04:	20000010 	.word	0x20000010
  ldr r4, =_ebss
 8000c08:	2000058c 	.word	0x2000058c

08000c0c <ADC_IRQHandler>:
 * @retval None       
*/
    .section  .text.Default_Handler,"ax",%progbits
Default_Handler:
Infinite_Loop:
  b  Infinite_Loop
 8000c0c:	e7fe      	b.n	8000c0c <ADC_IRQHandler>
	...

08000c10 <HAL_Init>:
  *         need to ensure that the SysTick time base is always set to 1 millisecond
  *         to have correct HAL operation.
  * @retval HAL status
  */
HAL_StatusTypeDef HAL_Init(void)
{
 8000c10:	b580      	push	{r7, lr}
 8000c12:	af00      	add	r7, sp, #0
  /* Configure Flash prefetch, Instruction cache, Data cache */ 
#if (INSTRUCTION_CACHE_ENABLE != 0U)
  __HAL_FLASH_INSTRUCTION_CACHE_ENABLE();
 8000c14:	4b0e      	ldr	r3, [pc, #56]	@ (8000c50 <HAL_Init+0x40>)
 8000c16:	681b      	ldr	r3, [r3, #0]
 8000c18:	4a0d      	ldr	r2, [pc, #52]	@ (8000c50 <HAL_Init+0x40>)
 8000c1a:	f443 7300 	orr.w	r3, r3, #512	@ 0x200
 8000c1e:	6013      	str	r3, [r2, #0]
#endif /* INSTRUCTION_CACHE_ENABLE */

#if (DATA_CACHE_ENABLE != 0U)
  __HAL_FLASH_DATA_CACHE_ENABLE();
 8000c20:	4b0b      	ldr	r3, [pc, #44]	@ (8000c50 <HAL_Init+0x40>)
 8000c22:	681b      	ldr	r3, [r3, #0]
 8000c24:	4a0a      	ldr	r2, [pc, #40]	@ (8000c50 <HAL_Init+0x40>)
 8000c26:	f443 6380 	orr.w	r3, r3, #1024	@ 0x400
 8000c2a:	6013      	str	r3, [r2, #0]
#endif /* DATA_CACHE_ENABLE */

#if (PREFETCH_ENABLE != 0U)
  __HAL_FLASH_PREFETCH_BUFFER_ENABLE();
 8000c2c:	4b08      	ldr	r3, [pc, #32]	@ (8000c50 <HAL_Init+0x40>)
 8000c2e:	681b      	ldr	r3, [r3, #0]
 8000c30:	4a07      	ldr	r2, [pc, #28]	@ (8000c50 <HAL_Init+0x40>)
 8000c32:	f443 7380 	orr.w	r3, r3, #256	@ 0x100
 8000c36:	6013      	str	r3, [r2, #0]
#endif /* PREFETCH_ENABLE */

  /* Set Interrupt Group Priority */
  HAL_NVIC_SetPriorityGrouping(NVIC_PRIORITYGROUP_4);
 8000c38:	2003      	movs	r0, #3
 8000c3a:	f000 f92b 	bl	8000e94 <HAL_NVIC_SetPriorityGrouping>

  /* Use systick as time base source and configure 1ms tick (default clock after Reset is HSI) */
  HAL_InitTick(TICK_INT_PRIORITY);
 8000c3e:	200f      	movs	r0, #15
 8000c40:	f000 f808 	bl	8000c54 <HAL_InitTick>

  /* Init the low level hardware */
  HAL_MspInit();
 8000c44:	f7ff fe00 	bl	8000848 <HAL_MspInit>

  /* Return function status */
  return HAL_OK;
 8000c48:	2300      	movs	r3, #0
}
 8000c4a:	4618      	mov	r0, r3
 8000c4c:	bd80      	pop	{r7, pc}
 8000c4e:	bf00      	nop
 8000c50:	40023c00 	.word	0x40023c00

08000c54 <HAL_InitTick>:
  *       implementation  in user file.
  * @param TickPriority Tick interrupt priority.
  * @retval HAL status
  */
__weak HAL_StatusTypeDef HAL_InitTick(uint32_t TickPriority)
{
 8000c54:	b580      	push	{r7, lr}
 8000c56:	b082      	sub	sp, #8
 8000c58:	af00      	add	r7, sp, #0
 8000c5a:	6078      	str	r0, [r7, #4]
  /* Configure the SysTick to have interrupt in 1ms time basis*/
  if (HAL_SYSTICK_Config(SystemCoreClock / (1000U / uwTickFreq)) > 0U)
 8000c5c:	4b12      	ldr	r3, [pc, #72]	@ (8000ca8 <HAL_InitTick+0x54>)
 8000c5e:	681a      	ldr	r2, [r3, #0]
 8000c60:	4b12      	ldr	r3, [pc, #72]	@ (8000cac <HAL_InitTick+0x58>)
 8000c62:	781b      	ldrb	r3, [r3, #0]
 8000c64:	4619      	mov	r1, r3
 8000c66:	f44f 737a 	mov.w	r3, #1000	@ 0x3e8
 8000c6a:	fbb3 f3f1 	udiv	r3, r3, r1
 8000c6e:	fbb2 f3f3 	udiv	r3, r2, r3
 8000c72:	4618      	mov	r0, r3
 8000c74:	f000 f943 	bl	8000efe <HAL_SYSTICK_Config>
 8000c78:	4603      	mov	r3, r0
 8000c7a:	2b00      	cmp	r3, #0
 8000c7c:	d001      	beq.n	8000c82 <HAL_InitTick+0x2e>
  {
    return HAL_ERROR;
 8000c7e:	2301      	movs	r3, #1
 8000c80:	e00e      	b.n	8000ca0 <HAL_InitTick+0x4c>
  }

  /* Configure the SysTick IRQ priority */
  if (TickPriority < (1UL << __NVIC_PRIO_BITS))
 8000c82:	687b      	ldr	r3, [r7, #4]
 8000c84:	2b0f      	cmp	r3, #15
 8000c86:	d80a      	bhi.n	8000c9e <HAL_InitTick+0x4a>
  {
    HAL_NVIC_SetPriority(SysTick_IRQn, TickPriority, 0U);
 8000c88:	2200      	movs	r2, #0
 8000c8a:	6879      	ldr	r1, [r7, #4]
 8000c8c:	f04f 30ff 	mov.w	r0, #4294967295
 8000c90:	f000 f90b 	bl	8000eaa <HAL_NVIC_SetPriority>
    uwTickPrio = TickPriority;
 8000c94:	4a06      	ldr	r2, [pc, #24]	@ (8000cb0 <HAL_InitTick+0x5c>)
 8000c96:	687b      	ldr	r3, [r7, #4]
 8000c98:	6013      	str	r3, [r2, #0]
  {
    return HAL_ERROR;
  }

  /* Return function status */
  return HAL_OK;
 8000c9a:	2300      	movs	r3, #0
 8000c9c:	e000      	b.n	8000ca0 <HAL_InitTick+0x4c>
    return HAL_ERROR;
 8000c9e:	2301      	movs	r3, #1
}
 8000ca0:	4618      	mov	r0, r3
 8000ca2:	3708      	adds	r7, #8
 8000ca4:	46bd      	mov	sp, r7
 8000ca6:	bd80      	pop	{r7, pc}
 8000ca8:	20000004 	.word	0x20000004
 8000cac:	2000000c 	.word	0x2000000c
 8000cb0:	20000008 	.word	0x20000008

08000cb4 <HAL_IncTick>:
 * @note This function is declared as __weak to be overwritten in case of other 
  *      implementations in user file.
  * @retval None
  */
__weak void HAL_IncTick(void)
{
 8000cb4:	b480      	push	{r7}
 8000cb6:	af00      	add	r7, sp, #0
  uwTick += uwTickFreq;
 8000cb8:	4b06      	ldr	r3, [pc, #24]	@ (8000cd4 <HAL_IncTick+0x20>)
 8000cba:	781b      	ldrb	r3, [r3, #0]
 8000cbc:	461a      	mov	r2, r3
 8000cbe:	4b06      	ldr	r3, [pc, #24]	@ (8000cd8 <HAL_IncTick+0x24>)
 8000cc0:	681b      	ldr	r3, [r3, #0]
 8000cc2:	4413      	add	r3, r2
 8000cc4:	4a04      	ldr	r2, [pc, #16]	@ (8000cd8 <HAL_IncTick+0x24>)
 8000cc6:	6013      	str	r3, [r2, #0]
}
 8000cc8:	bf00      	nop
 8000cca:	46bd      	mov	sp, r7
 8000ccc:	f85d 7b04 	ldr.w	r7, [sp], #4
 8000cd0:	4770      	bx	lr
 8000cd2:	bf00      	nop
 8000cd4:	2000000c 	.word	0x2000000c
 8000cd8:	20000588 	.word	0x20000588

08000cdc <HAL_GetTick>:
  * @note This function is declared as __weak to be overwritten in case of other 
  *       implementations in user file.
  * @retval tick value
  */
__weak uint32_t HAL_GetTick(void)
{
 8000cdc:	b480      	push	{r7}
 8000cde:	af00      	add	r7, sp, #0
  return uwTick;
 8000ce0:	4b03      	ldr	r3, [pc, #12]	@ (8000cf0 <HAL_GetTick+0x14>)
 8000ce2:	681b      	ldr	r3, [r3, #0]
}
 8000ce4:	4618      	mov	r0, r3
 8000ce6:	46bd      	mov	sp, r7
 8000ce8:	f85d 7b04 	ldr.w	r7, [sp], #4
 8000cec:	4770      	bx	lr
 8000cee:	bf00      	nop
 8000cf0:	20000588 	.word	0x20000588

08000cf4 <__NVIC_SetPriorityGrouping>:
           In case of a conflict between priority grouping and available
           priority bits (__NVIC_PRIO_BITS), the smallest possible priority group is set.
  \param [in]      PriorityGroup  Priority grouping field.
 */
__STATIC_INLINE void __NVIC_SetPriorityGrouping(uint32_t PriorityGroup)
{
 8000cf4:	b480      	push	{r7}
 8000cf6:	b085      	sub	sp, #20
 8000cf8:	af00      	add	r7, sp, #0
 8000cfa:	6078      	str	r0, [r7, #4]
  uint32_t reg_value;
  uint32_t PriorityGroupTmp = (PriorityGroup & (uint32_t)0x07UL);             /* only values 0..7 are used          */
 8000cfc:	687b      	ldr	r3, [r7, #4]
 8000cfe:	f003 0307 	and.w	r3, r3, #7
 8000d02:	60fb      	str	r3, [r7, #12]

  reg_value  =  SCB->AIRCR;                                                   /* read old register configuration    */
 8000d04:	4b0c      	ldr	r3, [pc, #48]	@ (8000d38 <__NVIC_SetPriorityGrouping+0x44>)
 8000d06:	68db      	ldr	r3, [r3, #12]
 8000d08:	60bb      	str	r3, [r7, #8]
  reg_value &= ~((uint32_t)(SCB_AIRCR_VECTKEY_Msk | SCB_AIRCR_PRIGROUP_Msk)); /* clear bits to change               */
 8000d0a:	68ba      	ldr	r2, [r7, #8]
 8000d0c:	f64f 03ff 	movw	r3, #63743	@ 0xf8ff
 8000d10:	4013      	ands	r3, r2
 8000d12:	60bb      	str	r3, [r7, #8]
  reg_value  =  (reg_value                                   |
                ((uint32_t)0x5FAUL << SCB_AIRCR_VECTKEY_Pos) |
                (PriorityGroupTmp << SCB_AIRCR_PRIGROUP_Pos)  );              /* Insert write key and priority group */
 8000d14:	68fb      	ldr	r3, [r7, #12]
 8000d16:	021a      	lsls	r2, r3, #8
                ((uint32_t)0x5FAUL << SCB_AIRCR_VECTKEY_Pos) |
 8000d18:	68bb      	ldr	r3, [r7, #8]
 8000d1a:	4313      	orrs	r3, r2
  reg_value  =  (reg_value                                   |
 8000d1c:	f043 63bf 	orr.w	r3, r3, #100139008	@ 0x5f80000
 8000d20:	f443 3300 	orr.w	r3, r3, #131072	@ 0x20000
 8000d24:	60bb      	str	r3, [r7, #8]
  SCB->AIRCR =  reg_value;
 8000d26:	4a04      	ldr	r2, [pc, #16]	@ (8000d38 <__NVIC_SetPriorityGrouping+0x44>)
 8000d28:	68bb      	ldr	r3, [r7, #8]
 8000d2a:	60d3      	str	r3, [r2, #12]
}
 8000d2c:	bf00      	nop
 8000d2e:	3714      	adds	r7, #20
 8000d30:	46bd      	mov	sp, r7
 8000d32:	f85d 7b04 	ldr.w	r7, [sp], #4
 8000d36:	4770      	bx	lr
 8000d38:	e000ed00 	.word	0xe000ed00

08000d3c <__NVIC_GetPriorityGrouping>:
  \brief   Get Priority Grouping
  \details Reads the priority grouping field from the NVIC Interrupt Controller.
  \return                Priority grouping field (SCB->AIRCR [10:8] PRIGROUP field).
 */
__STATIC_INLINE uint32_t __NVIC_GetPriorityGrouping(void)
{
 8000d3c:	b480      	push	{r7}
 8000d3e:	af00      	add	r7, sp, #0
  return ((uint32_t)((SCB->AIRCR & SCB_AIRCR_PRIGROUP_Msk) >> SCB_AIRCR_PRIGROUP_Pos));
 8000d40:	4b04      	ldr	r3, [pc, #16]	@ (8000d54 <__NVIC_GetPriorityGrouping+0x18>)
 8000d42:	68db      	ldr	r3, [r3, #12]
 8000d44:	0a1b      	lsrs	r3, r3, #8
 8000d46:	f003 0307 	and.w	r3, r3, #7
}
 8000d4a:	4618      	mov	r0, r3
 8000d4c:	46bd      	mov	sp, r7
 8000d4e:	f85d 7b04 	ldr.w	r7, [sp], #4
 8000d52:	4770      	bx	lr
 8000d54:	e000ed00 	.word	0xe000ed00

08000d58 <__NVIC_EnableIRQ>:
  \details Enables a device specific interrupt in the NVIC interrupt controller.
  \param [in]      IRQn  Device specific interrupt number.
  \note    IRQn must not be negative.
 */
__STATIC_INLINE void __NVIC_EnableIRQ(IRQn_Type IRQn)
{
 8000d58:	b480      	push	{r7}
 8000d5a:	b083      	sub	sp, #12
 8000d5c:	af00      	add	r7, sp, #0
 8000d5e:	4603      	mov	r3, r0
 8000d60:	71fb      	strb	r3, [r7, #7]
  if ((int32_t)(IRQn) >= 0)
 8000d62:	f997 3007 	ldrsb.w	r3, [r7, #7]
 8000d66:	2b00      	cmp	r3, #0
 8000d68:	db0b      	blt.n	8000d82 <__NVIC_EnableIRQ+0x2a>
  {
    __COMPILER_BARRIER();
    NVIC->ISER[(((uint32_t)IRQn) >> 5UL)] = (uint32_t)(1UL << (((uint32_t)IRQn) & 0x1FUL));
 8000d6a:	79fb      	ldrb	r3, [r7, #7]
 8000d6c:	f003 021f 	and.w	r2, r3, #31
 8000d70:	4907      	ldr	r1, [pc, #28]	@ (8000d90 <__NVIC_EnableIRQ+0x38>)
 8000d72:	f997 3007 	ldrsb.w	r3, [r7, #7]
 8000d76:	095b      	lsrs	r3, r3, #5
 8000d78:	2001      	movs	r0, #1
 8000d7a:	fa00 f202 	lsl.w	r2, r0, r2
 8000d7e:	f841 2023 	str.w	r2, [r1, r3, lsl #2]
    __COMPILER_BARRIER();
  }
}
 8000d82:	bf00      	nop
 8000d84:	370c      	adds	r7, #12
 8000d86:	46bd      	mov	sp, r7
 8000d88:	f85d 7b04 	ldr.w	r7, [sp], #4
 8000d8c:	4770      	bx	lr
 8000d8e:	bf00      	nop
 8000d90:	e000e100 	.word	0xe000e100

08000d94 <__NVIC_SetPriority>:
  \param [in]      IRQn  Interrupt number.
  \param [in]  priority  Priority to set.
  \note    The priority cannot be set for every processor exception.
 */
__STATIC_INLINE void __NVIC_SetPriority(IRQn_Type IRQn, uint32_t priority)
{
 8000d94:	b480      	push	{r7}
 8000d96:	b083      	sub	sp, #12
 8000d98:	af00      	add	r7, sp, #0
 8000d9a:	4603      	mov	r3, r0
 8000d9c:	6039      	str	r1, [r7, #0]
 8000d9e:	71fb      	strb	r3, [r7, #7]
  if ((int32_t)(IRQn) >= 0)
 8000da0:	f997 3007 	ldrsb.w	r3, [r7, #7]
 8000da4:	2b00      	cmp	r3, #0
 8000da6:	db0a      	blt.n	8000dbe <__NVIC_SetPriority+0x2a>
  {
    NVIC->IP[((uint32_t)IRQn)]               = (uint8_t)((priority << (8U - __NVIC_PRIO_BITS)) & (uint32_t)0xFFUL);
 8000da8:	683b      	ldr	r3, [r7, #0]
 8000daa:	b2da      	uxtb	r2, r3
 8000dac:	490c      	ldr	r1, [pc, #48]	@ (8000de0 <__NVIC_SetPriority+0x4c>)
 8000dae:	f997 3007 	ldrsb.w	r3, [r7, #7]
 8000db2:	0112      	lsls	r2, r2, #4
 8000db4:	b2d2      	uxtb	r2, r2
 8000db6:	440b      	add	r3, r1
 8000db8:	f883 2300 	strb.w	r2, [r3, #768]	@ 0x300
  }
  else
  {
    SCB->SHP[(((uint32_t)IRQn) & 0xFUL)-4UL] = (uint8_t)((priority << (8U - __NVIC_PRIO_BITS)) & (uint32_t)0xFFUL);
  }
}
 8000dbc:	e00a      	b.n	8000dd4 <__NVIC_SetPriority+0x40>
    SCB->SHP[(((uint32_t)IRQn) & 0xFUL)-4UL] = (uint8_t)((priority << (8U - __NVIC_PRIO_BITS)) & (uint32_t)0xFFUL);
 8000dbe:	683b      	ldr	r3, [r7, #0]
 8000dc0:	b2da      	uxtb	r2, r3
 8000dc2:	4908      	ldr	r1, [pc, #32]	@ (8000de4 <__NVIC_SetPriority+0x50>)
 8000dc4:	79fb      	ldrb	r3, [r7, #7]
 8000dc6:	f003 030f 	and.w	r3, r3, #15
 8000dca:	3b04      	subs	r3, #4
 8000dcc:	0112      	lsls	r2, r2, #4
 8000dce:	b2d2      	uxtb	r2, r2
 8000dd0:	440b      	add	r3, r1
 8000dd2:	761a      	strb	r2, [r3, #24]
}
 8000dd4:	bf00      	nop
 8000dd6:	370c      	adds	r7, #12
 8000dd8:	46bd      	mov	sp, r7
 8000dda:	f85d 7b04 	ldr.w	r7, [sp], #4
 8000dde:	4770      	bx	lr
 8000de0:	e000e100 	.word	0xe000e100
 8000de4:	e000ed00 	.word	0xe000ed00

08000de8 <NVIC_EncodePriority>:
  \param [in]   PreemptPriority  Preemptive priority value (starting from 0).
  \param [in]       SubPriority  Subpriority value (starting from 0).
  \return                        Encoded priority. Value can be used in the function \ref NVIC_SetPriority().
 */
__STATIC_INLINE uint32_t NVIC_EncodePriority (uint32_t PriorityGroup, uint32_t PreemptPriority, uint32_t SubPriority)
{
 8000de8:	b480      	push	{r7}
 8000dea:	b089      	sub	sp, #36	@ 0x24
 8000dec:	af00      	add	r7, sp, #0
 8000dee:	60f8      	str	r0, [r7, #12]
 8000df0:	60b9      	str	r1, [r7, #8]
 8000df2:	607a      	str	r2, [r7, #4]
  uint32_t PriorityGroupTmp = (PriorityGroup & (uint32_t)0x07UL);   /* only values 0..7 are used          */
 8000df4:	68fb      	ldr	r3, [r7, #12]
 8000df6:	f003 0307 	and.w	r3, r3, #7
 8000dfa:	61fb      	str	r3, [r7, #28]
  uint32_t PreemptPriorityBits;
  uint32_t SubPriorityBits;

  PreemptPriorityBits = ((7UL - PriorityGroupTmp) > (uint32_t)(__NVIC_PRIO_BITS)) ? (uint32_t)(__NVIC_PRIO_BITS) : (uint32_t)(7UL - PriorityGroupTmp);
 8000dfc:	69fb      	ldr	r3, [r7, #28]
 8000dfe:	f1c3 0307 	rsb	r3, r3, #7
 8000e02:	2b04      	cmp	r3, #4
 8000e04:	bf28      	it	cs
 8000e06:	2304      	movcs	r3, #4
 8000e08:	61bb      	str	r3, [r7, #24]
  SubPriorityBits     = ((PriorityGroupTmp + (uint32_t)(__NVIC_PRIO_BITS)) < (uint32_t)7UL) ? (uint32_t)0UL : (uint32_t)((PriorityGroupTmp - 7UL) + (uint32_t)(__NVIC_PRIO_BITS));
 8000e0a:	69fb      	ldr	r3, [r7, #28]
 8000e0c:	3304      	adds	r3, #4
 8000e0e:	2b06      	cmp	r3, #6
 8000e10:	d902      	bls.n	8000e18 <NVIC_EncodePriority+0x30>
 8000e12:	69fb      	ldr	r3, [r7, #28]
 8000e14:	3b03      	subs	r3, #3
 8000e16:	e000      	b.n	8000e1a <NVIC_EncodePriority+0x32>
 8000e18:	2300      	movs	r3, #0
 8000e1a:	617b      	str	r3, [r7, #20]

  return (
           ((PreemptPriority & (uint32_t)((1UL << (PreemptPriorityBits)) - 1UL)) << SubPriorityBits) |
 8000e1c:	f04f 32ff 	mov.w	r2, #4294967295
 8000e20:	69bb      	ldr	r3, [r7, #24]
 8000e22:	fa02 f303 	lsl.w	r3, r2, r3
 8000e26:	43da      	mvns	r2, r3
 8000e28:	68bb      	ldr	r3, [r7, #8]
 8000e2a:	401a      	ands	r2, r3
 8000e2c:	697b      	ldr	r3, [r7, #20]
 8000e2e:	409a      	lsls	r2, r3
           ((SubPriority     & (uint32_t)((1UL << (SubPriorityBits    )) - 1UL)))
 8000e30:	f04f 31ff 	mov.w	r1, #4294967295
 8000e34:	697b      	ldr	r3, [r7, #20]
 8000e36:	fa01 f303 	lsl.w	r3, r1, r3
 8000e3a:	43d9      	mvns	r1, r3
 8000e3c:	687b      	ldr	r3, [r7, #4]
 8000e3e:	400b      	ands	r3, r1
           ((PreemptPriority & (uint32_t)((1UL << (PreemptPriorityBits)) - 1UL)) << SubPriorityBits) |
 8000e40:	4313      	orrs	r3, r2
         );
}
 8000e42:	4618      	mov	r0, r3
 8000e44:	3724      	adds	r7, #36	@ 0x24
 8000e46:	46bd      	mov	sp, r7
 8000e48:	f85d 7b04 	ldr.w	r7, [sp], #4
 8000e4c:	4770      	bx	lr
	...

08000e50 <SysTick_Config>:
  \note    When the variable <b>__Vendor_SysTickConfig</b> is set to 1, then the
           function <b>SysTick_Config</b> is not included. In this case, the file <b><i>device</i>.h</b>
           must contain a vendor-specific implementation of this function.
 */
__STATIC_INLINE uint32_t SysTick_Config(uint32_t ticks)
{
 8000e50:	b580      	push	{r7, lr}
 8000e52:	b082      	sub	sp, #8
 8000e54:	af00      	add	r7, sp, #0
 8000e56:	6078      	str	r0, [r7, #4]
  if ((ticks - 1UL) > SysTick_LOAD_RELOAD_Msk)
 8000e58:	687b      	ldr	r3, [r7, #4]
 8000e5a:	3b01      	subs	r3, #1
 8000e5c:	f1b3 7f80 	cmp.w	r3, #16777216	@ 0x1000000
 8000e60:	d301      	bcc.n	8000e66 <SysTick_Config+0x16>
  {
    return (1UL);                                                   /* Reload value impossible */
 8000e62:	2301      	movs	r3, #1
 8000e64:	e00f      	b.n	8000e86 <SysTick_Config+0x36>
  }

  SysTick->LOAD  = (uint32_t)(ticks - 1UL);                         /* set reload register */
 8000e66:	4a0a      	ldr	r2, [pc, #40]	@ (8000e90 <SysTick_Config+0x40>)
 8000e68:	687b      	ldr	r3, [r7, #4]
 8000e6a:	3b01      	subs	r3, #1
 8000e6c:	6053      	str	r3, [r2, #4]
  NVIC_SetPriority (SysTick_IRQn, (1UL << __NVIC_PRIO_BITS) - 1UL); /* set Priority for Systick Interrupt */
 8000e6e:	210f      	movs	r1, #15
 8000e70:	f04f 30ff 	mov.w	r0, #4294967295
 8000e74:	f7ff ff8e 	bl	8000d94 <__NVIC_SetPriority>
  SysTick->VAL   = 0UL;                                             /* Load the SysTick Counter Value */
 8000e78:	4b05      	ldr	r3, [pc, #20]	@ (8000e90 <SysTick_Config+0x40>)
 8000e7a:	2200      	movs	r2, #0
 8000e7c:	609a      	str	r2, [r3, #8]
  SysTick->CTRL  = SysTick_CTRL_CLKSOURCE_Msk |
 8000e7e:	4b04      	ldr	r3, [pc, #16]	@ (8000e90 <SysTick_Config+0x40>)
 8000e80:	2207      	movs	r2, #7
 8000e82:	601a      	str	r2, [r3, #0]
                   SysTick_CTRL_TICKINT_Msk   |
                   SysTick_CTRL_ENABLE_Msk;                         /* Enable SysTick IRQ and SysTick Timer */
  return (0UL);                                                     /* Function successful */
 8000e84:	2300      	movs	r3, #0
}
 8000e86:	4618      	mov	r0, r3
 8000e88:	3708      	adds	r7, #8
 8000e8a:	46bd      	mov	sp, r7
 8000e8c:	bd80      	pop	{r7, pc}
 8000e8e:	bf00      	nop
 8000e90:	e000e010 	.word	0xe000e010

08000e94 <HAL_NVIC_SetPriorityGrouping>:
  * @note   When the NVIC_PriorityGroup_0 is selected, IRQ preemption is no more possible. 
  *         The pending IRQ priority will be managed only by the subpriority. 
  * @retval None
  */
void HAL_NVIC_SetPriorityGrouping(uint32_t PriorityGroup)
{
 8000e94:	b580      	push	{r7, lr}
 8000e96:	b082      	sub	sp, #8
 8000e98:	af00      	add	r7, sp, #0
 8000e9a:	6078      	str	r0, [r7, #4]
  /* Check the parameters */
  assert_param(IS_NVIC_PRIORITY_GROUP(PriorityGroup));
  
  /* Set the PRIGROUP[10:8] bits according to the PriorityGroup parameter value */
  NVIC_SetPriorityGrouping(PriorityGroup);
 8000e9c:	6878      	ldr	r0, [r7, #4]
 8000e9e:	f7ff ff29 	bl	8000cf4 <__NVIC_SetPriorityGrouping>
}
 8000ea2:	bf00      	nop
 8000ea4:	3708      	adds	r7, #8
 8000ea6:	46bd      	mov	sp, r7
 8000ea8:	bd80      	pop	{r7, pc}

08000eaa <HAL_NVIC_SetPriority>:
  *         This parameter can be a value between 0 and 15
  *         A lower priority value indicates a higher priority.          
  * @retval None
  */
void HAL_NVIC_SetPriority(IRQn_Type IRQn, uint32_t PreemptPriority, uint32_t SubPriority)
{ 
 8000eaa:	b580      	push	{r7, lr}
 8000eac:	b086      	sub	sp, #24
 8000eae:	af00      	add	r7, sp, #0
 8000eb0:	4603      	mov	r3, r0
 8000eb2:	60b9      	str	r1, [r7, #8]
 8000eb4:	607a      	str	r2, [r7, #4]
 8000eb6:	73fb      	strb	r3, [r7, #15]
  uint32_t prioritygroup = 0x00U;
 8000eb8:	2300      	movs	r3, #0
 8000eba:	617b      	str	r3, [r7, #20]
  
  /* Check the parameters */
  assert_param(IS_NVIC_SUB_PRIORITY(SubPriority));
  assert_param(IS_NVIC_PREEMPTION_PRIORITY(PreemptPriority));
  
  prioritygroup = NVIC_GetPriorityGrouping();
 8000ebc:	f7ff ff3e 	bl	8000d3c <__NVIC_GetPriorityGrouping>
 8000ec0:	6178      	str	r0, [r7, #20]
  
  NVIC_SetPriority(IRQn, NVIC_EncodePriority(prioritygroup, PreemptPriority, SubPriority));
 8000ec2:	687a      	ldr	r2, [r7, #4]
 8000ec4:	68b9      	ldr	r1, [r7, #8]
 8000ec6:	6978      	ldr	r0, [r7, #20]
 8000ec8:	f7ff ff8e 	bl	8000de8 <NVIC_EncodePriority>
 8000ecc:	4602      	mov	r2, r0
 8000ece:	f997 300f 	ldrsb.w	r3, [r7, #15]
 8000ed2:	4611      	mov	r1, r2
 8000ed4:	4618      	mov	r0, r3
 8000ed6:	f7ff ff5d 	bl	8000d94 <__NVIC_SetPriority>
}
 8000eda:	bf00      	nop
 8000edc:	3718      	adds	r7, #24
 8000ede:	46bd      	mov	sp, r7
 8000ee0:	bd80      	pop	{r7, pc}

08000ee2 <HAL_NVIC_EnableIRQ>:
  *         This parameter can be an enumerator of IRQn_Type enumeration
  *         (For the complete STM32 Devices IRQ Channels list, please refer to the appropriate CMSIS device file (stm32f4xxxx.h))
  * @retval None
  */
void HAL_NVIC_EnableIRQ(IRQn_Type IRQn)
{
 8000ee2:	b580      	push	{r7, lr}
 8000ee4:	b082      	sub	sp, #8
 8000ee6:	af00      	add	r7, sp, #0
 8000ee8:	4603      	mov	r3, r0
 8000eea:	71fb      	strb	r3, [r7, #7]
  /* Check the parameters */
  assert_param(IS_NVIC_DEVICE_IRQ(IRQn));
  
  /* Enable interrupt */
  NVIC_EnableIRQ(IRQn);
 8000eec:	f997 3007 	ldrsb.w	r3, [r7, #7]
 8000ef0:	4618      	mov	r0, r3
 8000ef2:	f7ff ff31 	bl	8000d58 <__NVIC_EnableIRQ>
}
 8000ef6:	bf00      	nop
 8000ef8:	3708      	adds	r7, #8
 8000efa:	46bd      	mov	sp, r7
 8000efc:	bd80      	pop	{r7, pc}

08000efe <HAL_SYSTICK_Config>:
  * @param  TicksNumb Specifies the ticks Number of ticks between two interrupts.
  * @retval status:  - 0  Function succeeded.
  *                  - 1  Function failed.
  */
uint32_t HAL_SYSTICK_Config(uint32_t TicksNumb)
{
 8000efe:	b580      	push	{r7, lr}
 8000f00:	b082      	sub	sp, #8
 8000f02:	af00      	add	r7, sp, #0
 8000f04:	6078      	str	r0, [r7, #4]
   return SysTick_Config(TicksNumb);
 8000f06:	6878      	ldr	r0, [r7, #4]
 8000f08:	f7ff ffa2 	bl	8000e50 <SysTick_Config>
 8000f0c:	4603      	mov	r3, r0
}
 8000f0e:	4618      	mov	r0, r3
 8000f10:	3708      	adds	r7, #8
 8000f12:	46bd      	mov	sp, r7
 8000f14:	bd80      	pop	{r7, pc}
	...

08000f18 <HAL_DMA_Init>:
  * @param  hdma Pointer to a DMA_HandleTypeDef structure that contains
  *               the configuration information for the specified DMA Stream.  
  * @retval HAL status
  */
HAL_StatusTypeDef HAL_DMA_Init(DMA_HandleTypeDef *hdma)
{
 8000f18:	b580      	push	{r7, lr}
 8000f1a:	b086      	sub	sp, #24
 8000f1c:	af00      	add	r7, sp, #0
 8000f1e:	6078      	str	r0, [r7, #4]
  uint32_t tmp = 0U;
 8000f20:	2300      	movs	r3, #0
 8000f22:	617b      	str	r3, [r7, #20]
  uint32_t tickstart = HAL_GetTick();
 8000f24:	f7ff feda 	bl	8000cdc <HAL_GetTick>
 8000f28:	6138      	str	r0, [r7, #16]
  DMA_Base_Registers *regs;

  /* Check the DMA peripheral state */
  if(hdma == NULL)
 8000f2a:	687b      	ldr	r3, [r7, #4]
 8000f2c:	2b00      	cmp	r3, #0
 8000f2e:	d101      	bne.n	8000f34 <HAL_DMA_Init+0x1c>
  {
    return HAL_ERROR;
 8000f30:	2301      	movs	r3, #1
 8000f32:	e099      	b.n	8001068 <HAL_DMA_Init+0x150>
    assert_param(IS_DMA_MEMORY_BURST(hdma->Init.MemBurst));
    assert_param(IS_DMA_PERIPHERAL_BURST(hdma->Init.PeriphBurst));
  }

  /* Change DMA peripheral state */
  hdma->State = HAL_DMA_STATE_BUSY;
 8000f34:	687b      	ldr	r3, [r7, #4]
 8000f36:	2202      	movs	r2, #2
 8000f38:	f883 2035 	strb.w	r2, [r3, #53]	@ 0x35

  /* Allocate lock resource */
  __HAL_UNLOCK(hdma);
 8000f3c:	687b      	ldr	r3, [r7, #4]
 8000f3e:	2200      	movs	r2, #0
 8000f40:	f883 2034 	strb.w	r2, [r3, #52]	@ 0x34
  
  /* Disable the peripheral */
  __HAL_DMA_DISABLE(hdma);
 8000f44:	687b      	ldr	r3, [r7, #4]
 8000f46:	681b      	ldr	r3, [r3, #0]
 8000f48:	681a      	ldr	r2, [r3, #0]
 8000f4a:	687b      	ldr	r3, [r7, #4]
 8000f4c:	681b      	ldr	r3, [r3, #0]
 8000f4e:	f022 0201 	bic.w	r2, r2, #1
 8000f52:	601a      	str	r2, [r3, #0]
  
  /* Check if the DMA Stream is effectively disabled */
  while((hdma->Instance->CR & DMA_SxCR_EN) != RESET)
 8000f54:	e00f      	b.n	8000f76 <HAL_DMA_Init+0x5e>
  {
    /* Check for the Timeout */
    if((HAL_GetTick() - tickstart ) > HAL_TIMEOUT_DMA_ABORT)
 8000f56:	f7ff fec1 	bl	8000cdc <HAL_GetTick>
 8000f5a:	4602      	mov	r2, r0
 8000f5c:	693b      	ldr	r3, [r7, #16]
 8000f5e:	1ad3      	subs	r3, r2, r3
 8000f60:	2b05      	cmp	r3, #5
 8000f62:	d908      	bls.n	8000f76 <HAL_DMA_Init+0x5e>
    {
      /* Update error code */
      hdma->ErrorCode = HAL_DMA_ERROR_TIMEOUT;
 8000f64:	687b      	ldr	r3, [r7, #4]
 8000f66:	2220      	movs	r2, #32
 8000f68:	655a      	str	r2, [r3, #84]	@ 0x54
      
      /* Change the DMA state */
      hdma->State = HAL_DMA_STATE_TIMEOUT;
 8000f6a:	687b      	ldr	r3, [r7, #4]
 8000f6c:	2203      	movs	r2, #3
 8000f6e:	f883 2035 	strb.w	r2, [r3, #53]	@ 0x35
      
      return HAL_TIMEOUT;
 8000f72:	2303      	movs	r3, #3
 8000f74:	e078      	b.n	8001068 <HAL_DMA_Init+0x150>
  while((hdma->Instance->CR & DMA_SxCR_EN) != RESET)
 8000f76:	687b      	ldr	r3, [r7, #4]
 8000f78:	681b      	ldr	r3, [r3, #0]
 8000f7a:	681b      	ldr	r3, [r3, #0]
 8000f7c:	f003 0301 	and.w	r3, r3, #1
 8000f80:	2b00      	cmp	r3, #0
 8000f82:	d1e8      	bne.n	8000f56 <HAL_DMA_Init+0x3e>
    }
  }
  
  /* Get the CR register value */
  tmp = hdma->Instance->CR;
 8000f84:	687b      	ldr	r3, [r7, #4]
 8000f86:	681b      	ldr	r3, [r3, #0]
 8000f88:	681b      	ldr	r3, [r3, #0]
 8000f8a:	617b      	str	r3, [r7, #20]

  /* Clear CHSEL, MBURST, PBURST, PL, MSIZE, PSIZE, MINC, PINC, CIRC, DIR, CT and DBM bits */
  tmp &= ((uint32_t)~(DMA_SxCR_CHSEL | DMA_SxCR_MBURST | DMA_SxCR_PBURST | \
 8000f8c:	697a      	ldr	r2, [r7, #20]
 8000f8e:	4b38      	ldr	r3, [pc, #224]	@ (8001070 <HAL_DMA_Init+0x158>)
 8000f90:	4013      	ands	r3, r2
 8000f92:	617b      	str	r3, [r7, #20]
                      DMA_SxCR_PL    | DMA_SxCR_MSIZE  | DMA_SxCR_PSIZE  | \
                      DMA_SxCR_MINC  | DMA_SxCR_PINC   | DMA_SxCR_CIRC   | \
                      DMA_SxCR_DIR   | DMA_SxCR_CT     | DMA_SxCR_DBM));

  /* Prepare the DMA Stream configuration */
  tmp |=  hdma->Init.Channel             | hdma->Init.Direction        |
 8000f94:	687b      	ldr	r3, [r7, #4]
 8000f96:	685a      	ldr	r2, [r3, #4]
 8000f98:	687b      	ldr	r3, [r7, #4]
 8000f9a:	689b      	ldr	r3, [r3, #8]
 8000f9c:	431a      	orrs	r2, r3
          hdma->Init.PeriphInc           | hdma->Init.MemInc           |
 8000f9e:	687b      	ldr	r3, [r7, #4]
 8000fa0:	68db      	ldr	r3, [r3, #12]
  tmp |=  hdma->Init.Channel             | hdma->Init.Direction        |
 8000fa2:	431a      	orrs	r2, r3
          hdma->Init.PeriphInc           | hdma->Init.MemInc           |
 8000fa4:	687b      	ldr	r3, [r7, #4]
 8000fa6:	691b      	ldr	r3, [r3, #16]
 8000fa8:	431a      	orrs	r2, r3
          hdma->Init.PeriphDataAlignment | hdma->Init.MemDataAlignment |
 8000faa:	687b      	ldr	r3, [r7, #4]
 8000fac:	695b      	ldr	r3, [r3, #20]
          hdma->Init.PeriphInc           | hdma->Init.MemInc           |
 8000fae:	431a      	orrs	r2, r3
          hdma->Init.PeriphDataAlignment | hdma->Init.MemDataAlignment |
 8000fb0:	687b      	ldr	r3, [r7, #4]
 8000fb2:	699b      	ldr	r3, [r3, #24]
 8000fb4:	431a      	orrs	r2, r3
          hdma->Init.Mode                | hdma->Init.Priority;
 8000fb6:	687b      	ldr	r3, [r7, #4]
 8000fb8:	69db      	ldr	r3, [r3, #28]
          hdma->Init.PeriphDataAlignment | hdma->Init.MemDataAlignment |
 8000fba:	431a      	orrs	r2, r3
          hdma->Init.Mode                | hdma->Init.Priority;
 8000fbc:	687b      	ldr	r3, [r7, #4]
 8000fbe:	6a1b      	ldr	r3, [r3, #32]
 8000fc0:	4313      	orrs	r3, r2
  tmp |=  hdma->Init.Channel             | hdma->Init.Direction        |
 8000fc2:	697a      	ldr	r2, [r7, #20]
 8000fc4:	4313      	orrs	r3, r2
 8000fc6:	617b      	str	r3, [r7, #20]

  /* the Memory burst and peripheral burst are not used when the FIFO is disabled */
  if(hdma->Init.FIFOMode == DMA_FIFOMODE_ENABLE)
 8000fc8:	687b      	ldr	r3, [r7, #4]
 8000fca:	6a5b      	ldr	r3, [r3, #36]	@ 0x24
 8000fcc:	2b04      	cmp	r3, #4
 8000fce:	d107      	bne.n	8000fe0 <HAL_DMA_Init+0xc8>
  {
    /* Get memory burst and peripheral burst */
    tmp |=  hdma->Init.MemBurst | hdma->Init.PeriphBurst;
 8000fd0:	687b      	ldr	r3, [r7, #4]
 8000fd2:	6ada      	ldr	r2, [r3, #44]	@ 0x2c
 8000fd4:	687b      	ldr	r3, [r7, #4]
 8000fd6:	6b1b      	ldr	r3, [r3, #48]	@ 0x30
 8000fd8:	4313      	orrs	r3, r2
 8000fda:	697a      	ldr	r2, [r7, #20]
 8000fdc:	4313      	orrs	r3, r2
 8000fde:	617b      	str	r3, [r7, #20]
  }
  
  /* Write to DMA Stream CR register */
  hdma->Instance->CR = tmp;  
 8000fe0:	687b      	ldr	r3, [r7, #4]
 8000fe2:	681b      	ldr	r3, [r3, #0]
 8000fe4:	697a      	ldr	r2, [r7, #20]
 8000fe6:	601a      	str	r2, [r3, #0]

  /* Get the FCR register value */
  tmp = hdma->Instance->FCR;
 8000fe8:	687b      	ldr	r3, [r7, #4]
 8000fea:	681b      	ldr	r3, [r3, #0]
 8000fec:	695b      	ldr	r3, [r3, #20]
 8000fee:	617b      	str	r3, [r7, #20]

  /* Clear Direct mode and FIFO threshold bits */
  tmp &= (uint32_t)~(DMA_SxFCR_DMDIS | DMA_SxFCR_FTH);
 8000ff0:	697b      	ldr	r3, [r7, #20]
 8000ff2:	f023 0307 	bic.w	r3, r3, #7
 8000ff6:	617b      	str	r3, [r7, #20]

  /* Prepare the DMA Stream FIFO configuration */
  tmp |= hdma->Init.FIFOMode;
 8000ff8:	687b      	ldr	r3, [r7, #4]
 8000ffa:	6a5b      	ldr	r3, [r3, #36]	@ 0x24
 8000ffc:	697a      	ldr	r2, [r7, #20]
 8000ffe:	4313      	orrs	r3, r2
 8001000:	617b      	str	r3, [r7, #20]

  /* The FIFO threshold is not used when the FIFO mode is disabled */
  if(hdma->Init.FIFOMode == DMA_FIFOMODE_ENABLE)
 8001002:	687b      	ldr	r3, [r7, #4]
 8001004:	6a5b      	ldr	r3, [r3, #36]	@ 0x24
 8001006:	2b04      	cmp	r3, #4
 8001008:	d117      	bne.n	800103a <HAL_DMA_Init+0x122>
  {
    /* Get the FIFO threshold */
    tmp |= hdma->Init.FIFOThreshold;
 800100a:	687b      	ldr	r3, [r7, #4]
 800100c:	6a9b      	ldr	r3, [r3, #40]	@ 0x28
 800100e:	697a      	ldr	r2, [r7, #20]
 8001010:	4313      	orrs	r3, r2
 8001012:	617b      	str	r3, [r7, #20]
    
    /* Check compatibility between FIFO threshold level and size of the memory burst */
    /* for INCR4, INCR8, INCR16 bursts */
    if (hdma->Init.MemBurst != DMA_MBURST_SINGLE)
 8001014:	687b      	ldr	r3, [r7, #4]
 8001016:	6adb      	ldr	r3, [r3, #44]	@ 0x2c
 8001018:	2b00      	cmp	r3, #0
 800101a:	d00e      	beq.n	800103a <HAL_DMA_Init+0x122>
    {
      if (DMA_CheckFifoParam(hdma) != HAL_OK)
 800101c:	6878      	ldr	r0, [r7, #4]
 800101e:	f000 fa6f 	bl	8001500 <DMA_CheckFifoParam>
 8001022:	4603      	mov	r3, r0
 8001024:	2b00      	cmp	r3, #0
 8001026:	d008      	beq.n	800103a <HAL_DMA_Init+0x122>
      {
        /* Update error code */
        hdma->ErrorCode = HAL_DMA_ERROR_PARAM;
 8001028:	687b      	ldr	r3, [r7, #4]
 800102a:	2240      	movs	r2, #64	@ 0x40
 800102c:	655a      	str	r2, [r3, #84]	@ 0x54
        
        /* Change the DMA state */
        hdma->State = HAL_DMA_STATE_READY;
 800102e:	687b      	ldr	r3, [r7, #4]
 8001030:	2201      	movs	r2, #1
 8001032:	f883 2035 	strb.w	r2, [r3, #53]	@ 0x35
        
        return HAL_ERROR; 
 8001036:	2301      	movs	r3, #1
 8001038:	e016      	b.n	8001068 <HAL_DMA_Init+0x150>
      }
    }
  }
  
  /* Write to DMA Stream FCR */
  hdma->Instance->FCR = tmp;
 800103a:	687b      	ldr	r3, [r7, #4]
 800103c:	681b      	ldr	r3, [r3, #0]
 800103e:	697a      	ldr	r2, [r7, #20]
 8001040:	615a      	str	r2, [r3, #20]

  /* Initialize StreamBaseAddress and StreamIndex parameters to be used to calculate
     DMA steam Base Address needed by HAL_DMA_IRQHandler() and HAL_DMA_PollForTransfer() */
  regs = (DMA_Base_Registers *)DMA_CalcBaseAndBitshift(hdma);
 8001042:	6878      	ldr	r0, [r7, #4]
 8001044:	f000 fa26 	bl	8001494 <DMA_CalcBaseAndBitshift>
 8001048:	4603      	mov	r3, r0
 800104a:	60fb      	str	r3, [r7, #12]
  
  /* Clear all interrupt flags */
  regs->IFCR = 0x3FU << hdma->StreamIndex;
 800104c:	687b      	ldr	r3, [r7, #4]
 800104e:	6ddb      	ldr	r3, [r3, #92]	@ 0x5c
 8001050:	223f      	movs	r2, #63	@ 0x3f
 8001052:	409a      	lsls	r2, r3
 8001054:	68fb      	ldr	r3, [r7, #12]
 8001056:	609a      	str	r2, [r3, #8]

  /* Initialize the error code */
  hdma->ErrorCode = HAL_DMA_ERROR_NONE;
 8001058:	687b      	ldr	r3, [r7, #4]
 800105a:	2200      	movs	r2, #0
 800105c:	655a      	str	r2, [r3, #84]	@ 0x54
                                                                                     
  /* Initialize the DMA state */
  hdma->State = HAL_DMA_STATE_READY;
 800105e:	687b      	ldr	r3, [r7, #4]
 8001060:	2201      	movs	r2, #1
 8001062:	f883 2035 	strb.w	r2, [r3, #53]	@ 0x35

  return HAL_OK;
 8001066:	2300      	movs	r3, #0
}
 8001068:	4618      	mov	r0, r3
 800106a:	3718      	adds	r7, #24
 800106c:	46bd      	mov	sp, r7
 800106e:	bd80      	pop	{r7, pc}
 8001070:	f010803f 	.word	0xf010803f

08001074 <HAL_DMA_Start_IT>:
  * @param  DstAddress The destination memory Buffer address
  * @param  DataLength The length of data to be transferred from source to destination
  * @retval HAL status
  */
HAL_StatusTypeDef HAL_DMA_Start_IT(DMA_HandleTypeDef *hdma, uint32_t SrcAddress, uint32_t DstAddress, uint32_t DataLength)
{
 8001074:	b580      	push	{r7, lr}
 8001076:	b086      	sub	sp, #24
 8001078:	af00      	add	r7, sp, #0
 800107a:	60f8      	str	r0, [r7, #12]
 800107c:	60b9      	str	r1, [r7, #8]
 800107e:	607a      	str	r2, [r7, #4]
 8001080:	603b      	str	r3, [r7, #0]
  HAL_StatusTypeDef status = HAL_OK;
 8001082:	2300      	movs	r3, #0
 8001084:	75fb      	strb	r3, [r7, #23]

  /* calculate DMA base and stream number */
  DMA_Base_Registers *regs = (DMA_Base_Registers *)hdma->StreamBaseAddress;
 8001086:	68fb      	ldr	r3, [r7, #12]
 8001088:	6d9b      	ldr	r3, [r3, #88]	@ 0x58
 800108a:	613b      	str	r3, [r7, #16]
  
  /* Check the parameters */
  assert_param(IS_DMA_BUFFER_SIZE(DataLength));
 
  /* Process locked */
  __HAL_LOCK(hdma);
 800108c:	68fb      	ldr	r3, [r7, #12]
 800108e:	f893 3034 	ldrb.w	r3, [r3, #52]	@ 0x34
 8001092:	2b01      	cmp	r3, #1
 8001094:	d101      	bne.n	800109a <HAL_DMA_Start_IT+0x26>
 8001096:	2302      	movs	r3, #2
 8001098:	e040      	b.n	800111c <HAL_DMA_Start_IT+0xa8>
 800109a:	68fb      	ldr	r3, [r7, #12]
 800109c:	2201      	movs	r2, #1
 800109e:	f883 2034 	strb.w	r2, [r3, #52]	@ 0x34
  
  if(HAL_DMA_STATE_READY == hdma->State)
 80010a2:	68fb      	ldr	r3, [r7, #12]
 80010a4:	f893 3035 	ldrb.w	r3, [r3, #53]	@ 0x35
 80010a8:	b2db      	uxtb	r3, r3
 80010aa:	2b01      	cmp	r3, #1
 80010ac:	d12f      	bne.n	800110e <HAL_DMA_Start_IT+0x9a>
  {
    /* Change DMA peripheral state */
    hdma->State = HAL_DMA_STATE_BUSY;
 80010ae:	68fb      	ldr	r3, [r7, #12]
 80010b0:	2202      	movs	r2, #2
 80010b2:	f883 2035 	strb.w	r2, [r3, #53]	@ 0x35
    
    /* Initialize the error code */
    hdma->ErrorCode = HAL_DMA_ERROR_NONE;
 80010b6:	68fb      	ldr	r3, [r7, #12]
 80010b8:	2200      	movs	r2, #0
 80010ba:	655a      	str	r2, [r3, #84]	@ 0x54
    
    /* Configure the source, destination address and the data length */
    DMA_SetConfig(hdma, SrcAddress, DstAddress, DataLength);
 80010bc:	683b      	ldr	r3, [r7, #0]
 80010be:	687a      	ldr	r2, [r7, #4]
 80010c0:	68b9      	ldr	r1, [r7, #8]
 80010c2:	68f8      	ldr	r0, [r7, #12]
 80010c4:	f000 f9b8 	bl	8001438 <DMA_SetConfig>
    
    /* Clear all interrupt flags at correct offset within the register */
    regs->IFCR = 0x3FU << hdma->StreamIndex;
 80010c8:	68fb      	ldr	r3, [r7, #12]
 80010ca:	6ddb      	ldr	r3, [r3, #92]	@ 0x5c
 80010cc:	223f      	movs	r2, #63	@ 0x3f
 80010ce:	409a      	lsls	r2, r3
 80010d0:	693b      	ldr	r3, [r7, #16]
 80010d2:	609a      	str	r2, [r3, #8]
    
    /* Enable Common interrupts*/
    hdma->Instance->CR  |= DMA_IT_TC | DMA_IT_TE | DMA_IT_DME;
 80010d4:	68fb      	ldr	r3, [r7, #12]
 80010d6:	681b      	ldr	r3, [r3, #0]
 80010d8:	681a      	ldr	r2, [r3, #0]
 80010da:	68fb      	ldr	r3, [r7, #12]
 80010dc:	681b      	ldr	r3, [r3, #0]
 80010de:	f042 0216 	orr.w	r2, r2, #22
 80010e2:	601a      	str	r2, [r3, #0]
    
    if(hdma->XferHalfCpltCallback != NULL)
 80010e4:	68fb      	ldr	r3, [r7, #12]
 80010e6:	6c1b      	ldr	r3, [r3, #64]	@ 0x40
 80010e8:	2b00      	cmp	r3, #0
 80010ea:	d007      	beq.n	80010fc <HAL_DMA_Start_IT+0x88>
    {
      hdma->Instance->CR  |= DMA_IT_HT;
 80010ec:	68fb      	ldr	r3, [r7, #12]
 80010ee:	681b      	ldr	r3, [r3, #0]
 80010f0:	681a      	ldr	r2, [r3, #0]
 80010f2:	68fb      	ldr	r3, [r7, #12]
 80010f4:	681b      	ldr	r3, [r3, #0]
 80010f6:	f042 0208 	orr.w	r2, r2, #8
 80010fa:	601a      	str	r2, [r3, #0]
    }
    
    /* Enable the Peripheral */
    __HAL_DMA_ENABLE(hdma);
 80010fc:	68fb      	ldr	r3, [r7, #12]
 80010fe:	681b      	ldr	r3, [r3, #0]
 8001100:	681a      	ldr	r2, [r3, #0]
 8001102:	68fb      	ldr	r3, [r7, #12]
 8001104:	681b      	ldr	r3, [r3, #0]
 8001106:	f042 0201 	orr.w	r2, r2, #1
 800110a:	601a      	str	r2, [r3, #0]
 800110c:	e005      	b.n	800111a <HAL_DMA_Start_IT+0xa6>
  }
  else
  {
    /* Process unlocked */
    __HAL_UNLOCK(hdma);	  
 800110e:	68fb      	ldr	r3, [r7, #12]
 8001110:	2200      	movs	r2, #0
 8001112:	f883 2034 	strb.w	r2, [r3, #52]	@ 0x34
    
    /* Return error status */
    status = HAL_BUSY;
 8001116:	2302      	movs	r3, #2
 8001118:	75fb      	strb	r3, [r7, #23]
  }
  
  return status;
 800111a:	7dfb      	ldrb	r3, [r7, #23]
}
 800111c:	4618      	mov	r0, r3
 800111e:	3718      	adds	r7, #24
 8001120:	46bd      	mov	sp, r7
 8001122:	bd80      	pop	{r7, pc}

08001124 <HAL_DMA_IRQHandler>:
  * @param  hdma pointer to a DMA_HandleTypeDef structure that contains
  *               the configuration information for the specified DMA Stream.  
  * @retval None
  */
void HAL_DMA_IRQHandler(DMA_HandleTypeDef *hdma)
{
 8001124:	b580      	push	{r7, lr}
 8001126:	b086      	sub	sp, #24
 8001128:	af00      	add	r7, sp, #0
 800112a:	6078      	str	r0, [r7, #4]
  uint32_t tmpisr;
  __IO uint32_t count = 0U;
 800112c:	2300      	movs	r3, #0
 800112e:	60bb      	str	r3, [r7, #8]
  uint32_t timeout = SystemCoreClock / 9600U;
 8001130:	4b8e      	ldr	r3, [pc, #568]	@ (800136c <HAL_DMA_IRQHandler+0x248>)
 8001132:	681b      	ldr	r3, [r3, #0]
 8001134:	4a8e      	ldr	r2, [pc, #568]	@ (8001370 <HAL_DMA_IRQHandler+0x24c>)
 8001136:	fba2 2303 	umull	r2, r3, r2, r3
 800113a:	0a9b      	lsrs	r3, r3, #10
 800113c:	617b      	str	r3, [r7, #20]

  /* calculate DMA base and stream number */
  DMA_Base_Registers *regs = (DMA_Base_Registers *)hdma->StreamBaseAddress;
 800113e:	687b      	ldr	r3, [r7, #4]
 8001140:	6d9b      	ldr	r3, [r3, #88]	@ 0x58
 8001142:	613b      	str	r3, [r7, #16]

  tmpisr = regs->ISR;
 8001144:	693b      	ldr	r3, [r7, #16]
 8001146:	681b      	ldr	r3, [r3, #0]
 8001148:	60fb      	str	r3, [r7, #12]

  /* Transfer Error Interrupt management ***************************************/
  if ((tmpisr & (DMA_FLAG_TEIF0_4 << hdma->StreamIndex)) != RESET)
 800114a:	687b      	ldr	r3, [r7, #4]
 800114c:	6ddb      	ldr	r3, [r3, #92]	@ 0x5c
 800114e:	2208      	movs	r2, #8
 8001150:	409a      	lsls	r2, r3
 8001152:	68fb      	ldr	r3, [r7, #12]
 8001154:	4013      	ands	r3, r2
 8001156:	2b00      	cmp	r3, #0
 8001158:	d01a      	beq.n	8001190 <HAL_DMA_IRQHandler+0x6c>
  {
    if(__HAL_DMA_GET_IT_SOURCE(hdma, DMA_IT_TE) != RESET)
 800115a:	687b      	ldr	r3, [r7, #4]
 800115c:	681b      	ldr	r3, [r3, #0]
 800115e:	681b      	ldr	r3, [r3, #0]
 8001160:	f003 0304 	and.w	r3, r3, #4
 8001164:	2b00      	cmp	r3, #0
 8001166:	d013      	beq.n	8001190 <HAL_DMA_IRQHandler+0x6c>
    {
      /* Disable the transfer error interrupt */
      hdma->Instance->CR  &= ~(DMA_IT_TE);
 8001168:	687b      	ldr	r3, [r7, #4]
 800116a:	681b      	ldr	r3, [r3, #0]
 800116c:	681a      	ldr	r2, [r3, #0]
 800116e:	687b      	ldr	r3, [r7, #4]
 8001170:	681b      	ldr	r3, [r3, #0]
 8001172:	f022 0204 	bic.w	r2, r2, #4
 8001176:	601a      	str	r2, [r3, #0]
      
      /* Clear the transfer error flag */
      regs->IFCR = DMA_FLAG_TEIF0_4 << hdma->StreamIndex;
 8001178:	687b      	ldr	r3, [r7, #4]
 800117a:	6ddb      	ldr	r3, [r3, #92]	@ 0x5c
 800117c:	2208      	movs	r2, #8
 800117e:	409a      	lsls	r2, r3
 8001180:	693b      	ldr	r3, [r7, #16]
 8001182:	609a      	str	r2, [r3, #8]
      
      /* Update error code */
      hdma->ErrorCode |= HAL_DMA_ERROR_TE;
 8001184:	687b      	ldr	r3, [r7, #4]
 8001186:	6d5b      	ldr	r3, [r3, #84]	@ 0x54
 8001188:	f043 0201 	orr.w	r2, r3, #1
 800118c:	687b      	ldr	r3, [r7, #4]
 800118e:	655a      	str	r2, [r3, #84]	@ 0x54
    }
  }
  /* FIFO Error Interrupt management ******************************************/
  if ((tmpisr & (DMA_FLAG_FEIF0_4 << hdma->StreamIndex)) != RESET)
 8001190:	687b      	ldr	r3, [r7, #4]
 8001192:	6ddb      	ldr	r3, [r3, #92]	@ 0x5c
 8001194:	2201      	movs	r2, #1
 8001196:	409a      	lsls	r2, r3
 8001198:	68fb      	ldr	r3, [r7, #12]
 800119a:	4013      	ands	r3, r2
 800119c:	2b00      	cmp	r3, #0
 800119e:	d012      	beq.n	80011c6 <HAL_DMA_IRQHandler+0xa2>
  {
    if(__HAL_DMA_GET_IT_SOURCE(hdma, DMA_IT_FE) != RESET)
 80011a0:	687b      	ldr	r3, [r7, #4]
 80011a2:	681b      	ldr	r3, [r3, #0]
 80011a4:	695b      	ldr	r3, [r3, #20]
 80011a6:	f003 0380 	and.w	r3, r3, #128	@ 0x80
 80011aa:	2b00      	cmp	r3, #0
 80011ac:	d00b      	beq.n	80011c6 <HAL_DMA_IRQHandler+0xa2>
    {
      /* Clear the FIFO error flag */
      regs->IFCR = DMA_FLAG_FEIF0_4 << hdma->StreamIndex;
 80011ae:	687b      	ldr	r3, [r7, #4]
 80011b0:	6ddb      	ldr	r3, [r3, #92]	@ 0x5c
 80011b2:	2201      	movs	r2, #1
 80011b4:	409a      	lsls	r2, r3
 80011b6:	693b      	ldr	r3, [r7, #16]
 80011b8:	609a      	str	r2, [r3, #8]

      /* Update error code */
      hdma->ErrorCode |= HAL_DMA_ERROR_FE;
 80011ba:	687b      	ldr	r3, [r7, #4]
 80011bc:	6d5b      	ldr	r3, [r3, #84]	@ 0x54
 80011be:	f043 0202 	orr.w	r2, r3, #2
 80011c2:	687b      	ldr	r3, [r7, #4]
 80011c4:	655a      	str	r2, [r3, #84]	@ 0x54
    }
  }
  /* Direct Mode Error Interrupt management ***********************************/
  if ((tmpisr & (DMA_FLAG_DMEIF0_4 << hdma->StreamIndex)) != RESET)
 80011c6:	687b      	ldr	r3, [r7, #4]
 80011c8:	6ddb      	ldr	r3, [r3, #92]	@ 0x5c
 80011ca:	2204      	movs	r2, #4
 80011cc:	409a      	lsls	r2, r3
 80011ce:	68fb      	ldr	r3, [r7, #12]
 80011d0:	4013      	ands	r3, r2
 80011d2:	2b00      	cmp	r3, #0
 80011d4:	d012      	beq.n	80011fc <HAL_DMA_IRQHandler+0xd8>
  {
    if(__HAL_DMA_GET_IT_SOURCE(hdma, DMA_IT_DME) != RESET)
 80011d6:	687b      	ldr	r3, [r7, #4]
 80011d8:	681b      	ldr	r3, [r3, #0]
 80011da:	681b      	ldr	r3, [r3, #0]
 80011dc:	f003 0302 	and.w	r3, r3, #2
 80011e0:	2b00      	cmp	r3, #0
 80011e2:	d00b      	beq.n	80011fc <HAL_DMA_IRQHandler+0xd8>
    {
      /* Clear the direct mode error flag */
      regs->IFCR = DMA_FLAG_DMEIF0_4 << hdma->StreamIndex;
 80011e4:	687b      	ldr	r3, [r7, #4]
 80011e6:	6ddb      	ldr	r3, [r3, #92]	@ 0x5c
 80011e8:	2204      	movs	r2, #4
 80011ea:	409a      	lsls	r2, r3
 80011ec:	693b      	ldr	r3, [r7, #16]
 80011ee:	609a      	str	r2, [r3, #8]

      /* Update error code */
      hdma->ErrorCode |= HAL_DMA_ERROR_DME;
 80011f0:	687b      	ldr	r3, [r7, #4]
 80011f2:	6d5b      	ldr	r3, [r3, #84]	@ 0x54
 80011f4:	f043 0204 	orr.w	r2, r3, #4
 80011f8:	687b      	ldr	r3, [r7, #4]
 80011fa:	655a      	str	r2, [r3, #84]	@ 0x54
    }
  }
  /* Half Transfer Complete Interrupt management ******************************/
  if ((tmpisr & (DMA_FLAG_HTIF0_4 << hdma->StreamIndex)) != RESET)
 80011fc:	687b      	ldr	r3, [r7, #4]
 80011fe:	6ddb      	ldr	r3, [r3, #92]	@ 0x5c
 8001200:	2210      	movs	r2, #16
 8001202:	409a      	lsls	r2, r3
 8001204:	68fb      	ldr	r3, [r7, #12]
 8001206:	4013      	ands	r3, r2
 8001208:	2b00      	cmp	r3, #0
 800120a:	d043      	beq.n	8001294 <HAL_DMA_IRQHandler+0x170>
  {
    if(__HAL_DMA_GET_IT_SOURCE(hdma, DMA_IT_HT) != RESET)
 800120c:	687b      	ldr	r3, [r7, #4]
 800120e:	681b      	ldr	r3, [r3, #0]
 8001210:	681b      	ldr	r3, [r3, #0]
 8001212:	f003 0308 	and.w	r3, r3, #8
 8001216:	2b00      	cmp	r3, #0
 8001218:	d03c      	beq.n	8001294 <HAL_DMA_IRQHandler+0x170>
    {
      /* Clear the half transfer complete flag */
      regs->IFCR = DMA_FLAG_HTIF0_4 << hdma->StreamIndex;
 800121a:	687b      	ldr	r3, [r7, #4]
 800121c:	6ddb      	ldr	r3, [r3, #92]	@ 0x5c
 800121e:	2210      	movs	r2, #16
 8001220:	409a      	lsls	r2, r3
 8001222:	693b      	ldr	r3, [r7, #16]
 8001224:	609a      	str	r2, [r3, #8]
      
      /* Multi_Buffering mode enabled */
      if(((hdma->Instance->CR) & (uint32_t)(DMA_SxCR_DBM)) != RESET)
 8001226:	687b      	ldr	r3, [r7, #4]
 8001228:	681b      	ldr	r3, [r3, #0]
 800122a:	681b      	ldr	r3, [r3, #0]
 800122c:	f403 2380 	and.w	r3, r3, #262144	@ 0x40000
 8001230:	2b00      	cmp	r3, #0
 8001232:	d018      	beq.n	8001266 <HAL_DMA_IRQHandler+0x142>
      {
        /* Current memory buffer used is Memory 0 */
        if((hdma->Instance->CR & DMA_SxCR_CT) == RESET)
 8001234:	687b      	ldr	r3, [r7, #4]
 8001236:	681b      	ldr	r3, [r3, #0]
 8001238:	681b      	ldr	r3, [r3, #0]
 800123a:	f403 2300 	and.w	r3, r3, #524288	@ 0x80000
 800123e:	2b00      	cmp	r3, #0
 8001240:	d108      	bne.n	8001254 <HAL_DMA_IRQHandler+0x130>
        {
          if(hdma->XferHalfCpltCallback != NULL)
 8001242:	687b      	ldr	r3, [r7, #4]
 8001244:	6c1b      	ldr	r3, [r3, #64]	@ 0x40
 8001246:	2b00      	cmp	r3, #0
 8001248:	d024      	beq.n	8001294 <HAL_DMA_IRQHandler+0x170>
          {
            /* Half transfer callback */
            hdma->XferHalfCpltCallback(hdma);
 800124a:	687b      	ldr	r3, [r7, #4]
 800124c:	6c1b      	ldr	r3, [r3, #64]	@ 0x40
 800124e:	6878      	ldr	r0, [r7, #4]
 8001250:	4798      	blx	r3
 8001252:	e01f      	b.n	8001294 <HAL_DMA_IRQHandler+0x170>
          }
        }
        /* Current memory buffer used is Memory 1 */
        else
        {
          if(hdma->XferM1HalfCpltCallback != NULL)
 8001254:	687b      	ldr	r3, [r7, #4]
 8001256:	6c9b      	ldr	r3, [r3, #72]	@ 0x48
 8001258:	2b00      	cmp	r3, #0
 800125a:	d01b      	beq.n	8001294 <HAL_DMA_IRQHandler+0x170>
          {
            /* Half transfer callback */
            hdma->XferM1HalfCpltCallback(hdma);
 800125c:	687b      	ldr	r3, [r7, #4]
 800125e:	6c9b      	ldr	r3, [r3, #72]	@ 0x48
 8001260:	6878      	ldr	r0, [r7, #4]
 8001262:	4798      	blx	r3
 8001264:	e016      	b.n	8001294 <HAL_DMA_IRQHandler+0x170>
        }
      }
      else
      {
        /* Disable the half transfer interrupt if the DMA mode is not CIRCULAR */
        if((hdma->Instance->CR & DMA_SxCR_CIRC) == RESET)
 8001266:	687b      	ldr	r3, [r7, #4]
 8001268:	681b      	ldr	r3, [r3, #0]
 800126a:	681b      	ldr	r3, [r3, #0]
 800126c:	f403 7380 	and.w	r3, r3, #256	@ 0x100
 8001270:	2b00      	cmp	r3, #0
 8001272:	d107      	bne.n	8001284 <HAL_DMA_IRQHandler+0x160>
        {
          /* Disable the half transfer interrupt */
          hdma->Instance->CR  &= ~(DMA_IT_HT);
 8001274:	687b      	ldr	r3, [r7, #4]
 8001276:	681b      	ldr	r3, [r3, #0]
 8001278:	681a      	ldr	r2, [r3, #0]
 800127a:	687b      	ldr	r3, [r7, #4]
 800127c:	681b      	ldr	r3, [r3, #0]
 800127e:	f022 0208 	bic.w	r2, r2, #8
 8001282:	601a      	str	r2, [r3, #0]
        }
        
        if(hdma->XferHalfCpltCallback != NULL)
 8001284:	687b      	ldr	r3, [r7, #4]
 8001286:	6c1b      	ldr	r3, [r3, #64]	@ 0x40
 8001288:	2b00      	cmp	r3, #0
 800128a:	d003      	beq.n	8001294 <HAL_DMA_IRQHandler+0x170>
        {
          /* Half transfer callback */
          hdma->XferHalfCpltCallback(hdma);
 800128c:	687b      	ldr	r3, [r7, #4]
 800128e:	6c1b      	ldr	r3, [r3, #64]	@ 0x40
 8001290:	6878      	ldr	r0, [r7, #4]
 8001292:	4798      	blx	r3
        }
      }
    }
  }
  /* Transfer Complete Interrupt management ***********************************/
  if ((tmpisr & (DMA_FLAG_TCIF0_4 << hdma->StreamIndex)) != RESET)
 8001294:	687b      	ldr	r3, [r7, #4]
 8001296:	6ddb      	ldr	r3, [r3, #92]	@ 0x5c
 8001298:	2220      	movs	r2, #32
 800129a:	409a      	lsls	r2, r3
 800129c:	68fb      	ldr	r3, [r7, #12]
 800129e:	4013      	ands	r3, r2
 80012a0:	2b00      	cmp	r3, #0
 80012a2:	f000 808f 	beq.w	80013c4 <HAL_DMA_IRQHandler+0x2a0>
  {
    if(__HAL_DMA_GET_IT_SOURCE(hdma, DMA_IT_TC) != RESET)
 80012a6:	687b      	ldr	r3, [r7, #4]
 80012a8:	681b      	ldr	r3, [r3, #0]
 80012aa:	681b      	ldr	r3, [r3, #0]
 80012ac:	f003 0310 	and.w	r3, r3, #16
 80012b0:	2b00      	cmp	r3, #0
 80012b2:	f000 8087 	beq.w	80013c4 <HAL_DMA_IRQHandler+0x2a0>
    {
      /* Clear the transfer complete flag */
      regs->IFCR = DMA_FLAG_TCIF0_4 << hdma->StreamIndex;
 80012b6:	687b      	ldr	r3, [r7, #4]
 80012b8:	6ddb      	ldr	r3, [r3, #92]	@ 0x5c
 80012ba:	2220      	movs	r2, #32
 80012bc:	409a      	lsls	r2, r3
 80012be:	693b      	ldr	r3, [r7, #16]
 80012c0:	609a      	str	r2, [r3, #8]
      
      if(HAL_DMA_STATE_ABORT == hdma->State)
 80012c2:	687b      	ldr	r3, [r7, #4]
 80012c4:	f893 3035 	ldrb.w	r3, [r3, #53]	@ 0x35
 80012c8:	b2db      	uxtb	r3, r3
 80012ca:	2b05      	cmp	r3, #5
 80012cc:	d136      	bne.n	800133c <HAL_DMA_IRQHandler+0x218>
      {
        /* Disable all the transfer interrupts */
        hdma->Instance->CR  &= ~(DMA_IT_TC | DMA_IT_TE | DMA_IT_DME);
 80012ce:	687b      	ldr	r3, [r7, #4]
 80012d0:	681b      	ldr	r3, [r3, #0]
 80012d2:	681a      	ldr	r2, [r3, #0]
 80012d4:	687b      	ldr	r3, [r7, #4]
 80012d6:	681b      	ldr	r3, [r3, #0]
 80012d8:	f022 0216 	bic.w	r2, r2, #22
 80012dc:	601a      	str	r2, [r3, #0]
        hdma->Instance->FCR &= ~(DMA_IT_FE);
 80012de:	687b      	ldr	r3, [r7, #4]
 80012e0:	681b      	ldr	r3, [r3, #0]
 80012e2:	695a      	ldr	r2, [r3, #20]
 80012e4:	687b      	ldr	r3, [r7, #4]
 80012e6:	681b      	ldr	r3, [r3, #0]
 80012e8:	f022 0280 	bic.w	r2, r2, #128	@ 0x80
 80012ec:	615a      	str	r2, [r3, #20]
        
        if((hdma->XferHalfCpltCallback != NULL) || (hdma->XferM1HalfCpltCallback != NULL))
 80012ee:	687b      	ldr	r3, [r7, #4]
 80012f0:	6c1b      	ldr	r3, [r3, #64]	@ 0x40
 80012f2:	2b00      	cmp	r3, #0
 80012f4:	d103      	bne.n	80012fe <HAL_DMA_IRQHandler+0x1da>
 80012f6:	687b      	ldr	r3, [r7, #4]
 80012f8:	6c9b      	ldr	r3, [r3, #72]	@ 0x48
 80012fa:	2b00      	cmp	r3, #0
 80012fc:	d007      	beq.n	800130e <HAL_DMA_IRQHandler+0x1ea>
        {
          hdma->Instance->CR  &= ~(DMA_IT_HT);
 80012fe:	687b      	ldr	r3, [r7, #4]
 8001300:	681b      	ldr	r3, [r3, #0]
 8001302:	681a      	ldr	r2, [r3, #0]
 8001304:	687b      	ldr	r3, [r7, #4]
 8001306:	681b      	ldr	r3, [r3, #0]
 8001308:	f022 0208 	bic.w	r2, r2, #8
 800130c:	601a      	str	r2, [r3, #0]
        }

        /* Clear all interrupt flags at correct offset within the register */
        regs->IFCR = 0x3FU << hdma->StreamIndex;
 800130e:	687b      	ldr	r3, [r7, #4]
 8001310:	6ddb      	ldr	r3, [r3, #92]	@ 0x5c
 8001312:	223f      	movs	r2, #63	@ 0x3f
 8001314:	409a      	lsls	r2, r3
 8001316:	693b      	ldr	r3, [r7, #16]
 8001318:	609a      	str	r2, [r3, #8]

        /* Change the DMA state */
        hdma->State = HAL_DMA_STATE_READY;
 800131a:	687b      	ldr	r3, [r7, #4]
 800131c:	2201      	movs	r2, #1
 800131e:	f883 2035 	strb.w	r2, [r3, #53]	@ 0x35

        /* Process Unlocked */
        __HAL_UNLOCK(hdma);
 8001322:	687b      	ldr	r3, [r7, #4]
 8001324:	2200      	movs	r2, #0
 8001326:	f883 2034 	strb.w	r2, [r3, #52]	@ 0x34

        if(hdma->XferAbortCallback != NULL)
 800132a:	687b      	ldr	r3, [r7, #4]
 800132c:	6d1b      	ldr	r3, [r3, #80]	@ 0x50
 800132e:	2b00      	cmp	r3, #0
 8001330:	d07e      	beq.n	8001430 <HAL_DMA_IRQHandler+0x30c>
        {
          hdma->XferAbortCallback(hdma);
 8001332:	687b      	ldr	r3, [r7, #4]
 8001334:	6d1b      	ldr	r3, [r3, #80]	@ 0x50
 8001336:	6878      	ldr	r0, [r7, #4]
 8001338:	4798      	blx	r3
        }
        return;
 800133a:	e079      	b.n	8001430 <HAL_DMA_IRQHandler+0x30c>
      }

      if(((hdma->Instance->CR) & (uint32_t)(DMA_SxCR_DBM)) != RESET)
 800133c:	687b      	ldr	r3, [r7, #4]
 800133e:	681b      	ldr	r3, [r3, #0]
 8001340:	681b      	ldr	r3, [r3, #0]
 8001342:	f403 2380 	and.w	r3, r3, #262144	@ 0x40000
 8001346:	2b00      	cmp	r3, #0
 8001348:	d01d      	beq.n	8001386 <HAL_DMA_IRQHandler+0x262>
      {
        /* Current memory buffer used is Memory 0 */
        if((hdma->Instance->CR & DMA_SxCR_CT) == RESET)
 800134a:	687b      	ldr	r3, [r7, #4]
 800134c:	681b      	ldr	r3, [r3, #0]
 800134e:	681b      	ldr	r3, [r3, #0]
 8001350:	f403 2300 	and.w	r3, r3, #524288	@ 0x80000
 8001354:	2b00      	cmp	r3, #0
 8001356:	d10d      	bne.n	8001374 <HAL_DMA_IRQHandler+0x250>
        {
          if(hdma->XferM1CpltCallback != NULL)
 8001358:	687b      	ldr	r3, [r7, #4]
 800135a:	6c5b      	ldr	r3, [r3, #68]	@ 0x44
 800135c:	2b00      	cmp	r3, #0
 800135e:	d031      	beq.n	80013c4 <HAL_DMA_IRQHandler+0x2a0>
          {
            /* Transfer complete Callback for memory1 */
            hdma->XferM1CpltCallback(hdma);
 8001360:	687b      	ldr	r3, [r7, #4]
 8001362:	6c5b      	ldr	r3, [r3, #68]	@ 0x44
 8001364:	6878      	ldr	r0, [r7, #4]
 8001366:	4798      	blx	r3
 8001368:	e02c      	b.n	80013c4 <HAL_DMA_IRQHandler+0x2a0>
 800136a:	bf00      	nop
 800136c:	20000004 	.word	0x20000004
 8001370:	1b4e81b5 	.word	0x1b4e81b5
          }
        }
        /* Current memory buffer used is Memory 1 */
        else
        {
          if(hdma->XferCpltCallback != NULL)
 8001374:	687b      	ldr	r3, [r7, #4]
 8001376:	6bdb      	ldr	r3, [r3, #60]	@ 0x3c
 8001378:	2b00      	cmp	r3, #0
 800137a:	d023      	beq.n	80013c4 <HAL_DMA_IRQHandler+0x2a0>
          {
            /* Transfer complete Callback for memory0 */
            hdma->XferCpltCallback(hdma);
 800137c:	687b      	ldr	r3, [r7, #4]
 800137e:	6bdb      	ldr	r3, [r3, #60]	@ 0x3c
 8001380:	6878      	ldr	r0, [r7, #4]
 8001382:	4798      	blx	r3
 8001384:	e01e      	b.n	80013c4 <HAL_DMA_IRQHandler+0x2a0>
        }
      }
      /* Disable the transfer complete interrupt if the DMA mode is not CIRCULAR */
      else
      {
        if((hdma->Instance->CR & DMA_SxCR_CIRC) == RESET)
 8001386:	687b      	ldr	r3, [r7, #4]
 8001388:	681b      	ldr	r3, [r3, #0]
 800138a:	681b      	ldr	r3, [r3, #0]
 800138c:	f403 7380 	and.w	r3, r3, #256	@ 0x100
 8001390:	2b00      	cmp	r3, #0
 8001392:	d10f      	bne.n	80013b4 <HAL_DMA_IRQHandler+0x290>
        {
          /* Disable the transfer complete interrupt */
          hdma->Instance->CR  &= ~(DMA_IT_TC);
 8001394:	687b      	ldr	r3, [r7, #4]
 8001396:	681b      	ldr	r3, [r3, #0]
 8001398:	681a      	ldr	r2, [r3, #0]
 800139a:	687b      	ldr	r3, [r7, #4]
 800139c:	681b      	ldr	r3, [r3, #0]
 800139e:	f022 0210 	bic.w	r2, r2, #16
 80013a2:	601a      	str	r2, [r3, #0]

          /* Change the DMA state */
          hdma->State = HAL_DMA_STATE_READY;
 80013a4:	687b      	ldr	r3, [r7, #4]
 80013a6:	2201      	movs	r2, #1
 80013a8:	f883 2035 	strb.w	r2, [r3, #53]	@ 0x35

          /* Process Unlocked */
          __HAL_UNLOCK(hdma);
 80013ac:	687b      	ldr	r3, [r7, #4]
 80013ae:	2200      	movs	r2, #0
 80013b0:	f883 2034 	strb.w	r2, [r3, #52]	@ 0x34
        }

        if(hdma->XferCpltCallback != NULL)
 80013b4:	687b      	ldr	r3, [r7, #4]
 80013b6:	6bdb      	ldr	r3, [r3, #60]	@ 0x3c
 80013b8:	2b00      	cmp	r3, #0
 80013ba:	d003      	beq.n	80013c4 <HAL_DMA_IRQHandler+0x2a0>
        {
          /* Transfer complete callback */
          hdma->XferCpltCallback(hdma);
 80013bc:	687b      	ldr	r3, [r7, #4]
 80013be:	6bdb      	ldr	r3, [r3, #60]	@ 0x3c
 80013c0:	6878      	ldr	r0, [r7, #4]
 80013c2:	4798      	blx	r3
      }
    }
  }
  
  /* manage error case */
  if(hdma->ErrorCode != HAL_DMA_ERROR_NONE)
 80013c4:	687b      	ldr	r3, [r7, #4]
 80013c6:	6d5b      	ldr	r3, [r3, #84]	@ 0x54
 80013c8:	2b00      	cmp	r3, #0
 80013ca:	d032      	beq.n	8001432 <HAL_DMA_IRQHandler+0x30e>
  {
    if((hdma->ErrorCode & HAL_DMA_ERROR_TE) != RESET)
 80013cc:	687b      	ldr	r3, [r7, #4]
 80013ce:	6d5b      	ldr	r3, [r3, #84]	@ 0x54
 80013d0:	f003 0301 	and.w	r3, r3, #1
 80013d4:	2b00      	cmp	r3, #0
 80013d6:	d022      	beq.n	800141e <HAL_DMA_IRQHandler+0x2fa>
    {
      hdma->State = HAL_DMA_STATE_ABORT;
 80013d8:	687b      	ldr	r3, [r7, #4]
 80013da:	2205      	movs	r2, #5
 80013dc:	f883 2035 	strb.w	r2, [r3, #53]	@ 0x35

      /* Disable the stream */
      __HAL_DMA_DISABLE(hdma);
 80013e0:	687b      	ldr	r3, [r7, #4]
 80013e2:	681b      	ldr	r3, [r3, #0]
 80013e4:	681a      	ldr	r2, [r3, #0]
 80013e6:	687b      	ldr	r3, [r7, #4]
 80013e8:	681b      	ldr	r3, [r3, #0]
 80013ea:	f022 0201 	bic.w	r2, r2, #1
 80013ee:	601a      	str	r2, [r3, #0]

      do
      {
        if (++count > timeout)
 80013f0:	68bb      	ldr	r3, [r7, #8]
 80013f2:	3301      	adds	r3, #1
 80013f4:	60bb      	str	r3, [r7, #8]
 80013f6:	697a      	ldr	r2, [r7, #20]
 80013f8:	429a      	cmp	r2, r3
 80013fa:	d307      	bcc.n	800140c <HAL_DMA_IRQHandler+0x2e8>
        {
          break;
        }
      }
      while((hdma->Instance->CR & DMA_SxCR_EN) != RESET);
 80013fc:	687b      	ldr	r3, [r7, #4]
 80013fe:	681b      	ldr	r3, [r3, #0]
 8001400:	681b      	ldr	r3, [r3, #0]
 8001402:	f003 0301 	and.w	r3, r3, #1
 8001406:	2b00      	cmp	r3, #0
 8001408:	d1f2      	bne.n	80013f0 <HAL_DMA_IRQHandler+0x2cc>
 800140a:	e000      	b.n	800140e <HAL_DMA_IRQHandler+0x2ea>
          break;
 800140c:	bf00      	nop

      /* Change the DMA state */
      hdma->State = HAL_DMA_STATE_READY;
 800140e:	687b      	ldr	r3, [r7, #4]
 8001410:	2201      	movs	r2, #1
 8001412:	f883 2035 	strb.w	r2, [r3, #53]	@ 0x35

      /* Process Unlocked */
      __HAL_UNLOCK(hdma);
 8001416:	687b      	ldr	r3, [r7, #4]
 8001418:	2200      	movs	r2, #0
 800141a:	f883 2034 	strb.w	r2, [r3, #52]	@ 0x34
    }

    if(hdma->XferErrorCallback != NULL)
 800141e:	687b      	ldr	r3, [r7, #4]
 8001420:	6cdb      	ldr	r3, [r3, #76]	@ 0x4c
 8001422:	2b00      	cmp	r3, #0
 8001424:	d005      	beq.n	8001432 <HAL_DMA_IRQHandler+0x30e>
    {
      /* Transfer error callback */
      hdma->XferErrorCallback(hdma);
 8001426:	687b      	ldr	r3, [r7, #4]
 8001428:	6cdb      	ldr	r3, [r3, #76]	@ 0x4c
 800142a:	6878      	ldr	r0, [r7, #4]
 800142c:	4798      	blx	r3
 800142e:	e000      	b.n	8001432 <HAL_DMA_IRQHandler+0x30e>
        return;
 8001430:	bf00      	nop
    }
  }
}
 8001432:	3718      	adds	r7, #24
 8001434:	46bd      	mov	sp, r7
 8001436:	bd80      	pop	{r7, pc}

08001438 <DMA_SetConfig>:
  * @param  DstAddress The destination memory Buffer address
  * @param  DataLength The length of data to be transferred from source to destination
  * @retval HAL status
  */
static void DMA_SetConfig(DMA_HandleTypeDef *hdma, uint32_t SrcAddress, uint32_t DstAddress, uint32_t DataLength)
{
 8001438:	b480      	push	{r7}
 800143a:	b085      	sub	sp, #20
 800143c:	af00      	add	r7, sp, #0
 800143e:	60f8      	str	r0, [r7, #12]
 8001440:	60b9      	str	r1, [r7, #8]
 8001442:	607a      	str	r2, [r7, #4]
 8001444:	603b      	str	r3, [r7, #0]
  /* Clear DBM bit */
  hdma->Instance->CR &= (uint32_t)(~DMA_SxCR_DBM);
 8001446:	68fb      	ldr	r3, [r7, #12]
 8001448:	681b      	ldr	r3, [r3, #0]
 800144a:	681a      	ldr	r2, [r3, #0]
 800144c:	68fb      	ldr	r3, [r7, #12]
 800144e:	681b      	ldr	r3, [r3, #0]
 8001450:	f422 2280 	bic.w	r2, r2, #262144	@ 0x40000
 8001454:	601a      	str	r2, [r3, #0]

  /* Configure DMA Stream data length */
  hdma->Instance->NDTR = DataLength;
 8001456:	68fb      	ldr	r3, [r7, #12]
 8001458:	681b      	ldr	r3, [r3, #0]
 800145a:	683a      	ldr	r2, [r7, #0]
 800145c:	605a      	str	r2, [r3, #4]

  /* Memory to Peripheral */
  if((hdma->Init.Direction) == DMA_MEMORY_TO_PERIPH)
 800145e:	68fb      	ldr	r3, [r7, #12]
 8001460:	689b      	ldr	r3, [r3, #8]
 8001462:	2b40      	cmp	r3, #64	@ 0x40
 8001464:	d108      	bne.n	8001478 <DMA_SetConfig+0x40>
  {
    /* Configure DMA Stream destination address */
    hdma->Instance->PAR = DstAddress;
 8001466:	68fb      	ldr	r3, [r7, #12]
 8001468:	681b      	ldr	r3, [r3, #0]
 800146a:	687a      	ldr	r2, [r7, #4]
 800146c:	609a      	str	r2, [r3, #8]

    /* Configure DMA Stream source address */
    hdma->Instance->M0AR = SrcAddress;
 800146e:	68fb      	ldr	r3, [r7, #12]
 8001470:	681b      	ldr	r3, [r3, #0]
 8001472:	68ba      	ldr	r2, [r7, #8]
 8001474:	60da      	str	r2, [r3, #12]
    hdma->Instance->PAR = SrcAddress;

    /* Configure DMA Stream destination address */
    hdma->Instance->M0AR = DstAddress;
  }
}
 8001476:	e007      	b.n	8001488 <DMA_SetConfig+0x50>
    hdma->Instance->PAR = SrcAddress;
 8001478:	68fb      	ldr	r3, [r7, #12]
 800147a:	681b      	ldr	r3, [r3, #0]
 800147c:	68ba      	ldr	r2, [r7, #8]
 800147e:	609a      	str	r2, [r3, #8]
    hdma->Instance->M0AR = DstAddress;
 8001480:	68fb      	ldr	r3, [r7, #12]
 8001482:	681b      	ldr	r3, [r3, #0]
 8001484:	687a      	ldr	r2, [r7, #4]
 8001486:	60da      	str	r2, [r3, #12]
}
 8001488:	bf00      	nop
 800148a:	3714      	adds	r7, #20
 800148c:	46bd      	mov	sp, r7
 800148e:	f85d 7b04 	ldr.w	r7, [sp], #4
 8001492:	4770      	bx	lr

08001494 <DMA_CalcBaseAndBitshift>:
  * @param  hdma       pointer to a DMA_HandleTypeDef structure that contains
  *                     the configuration information for the specified DMA Stream. 
  * @retval Stream base address
  */
static uint32_t DMA_CalcBaseAndBitshift(DMA_HandleTypeDef *hdma)
{
 8001494:	b480      	push	{r7}
 8001496:	b085      	sub	sp, #20
 8001498:	af00      	add	r7, sp, #0
 800149a:	6078      	str	r0, [r7, #4]
  uint32_t stream_number = (((uint32_t)hdma->Instance & 0xFFU) - 16U) / 24U;
 800149c:	687b      	ldr	r3, [r7, #4]
 800149e:	681b      	ldr	r3, [r3, #0]
 80014a0:	b2db      	uxtb	r3, r3
 80014a2:	3b10      	subs	r3, #16
 80014a4:	4a14      	ldr	r2, [pc, #80]	@ (80014f8 <DMA_CalcBaseAndBitshift+0x64>)
 80014a6:	fba2 2303 	umull	r2, r3, r2, r3
 80014aa:	091b      	lsrs	r3, r3, #4
 80014ac:	60fb      	str	r3, [r7, #12]
  
  /* lookup table for necessary bitshift of flags within status registers */
  static const uint8_t flagBitshiftOffset[8U] = {0U, 6U, 16U, 22U, 0U, 6U, 16U, 22U};
  hdma->StreamIndex = flagBitshiftOffset[stream_number];
 80014ae:	4a13      	ldr	r2, [pc, #76]	@ (80014fc <DMA_CalcBaseAndBitshift+0x68>)
 80014b0:	68fb      	ldr	r3, [r7, #12]
 80014b2:	4413      	add	r3, r2
 80014b4:	781b      	ldrb	r3, [r3, #0]
 80014b6:	461a      	mov	r2, r3
 80014b8:	687b      	ldr	r3, [r7, #4]
 80014ba:	65da      	str	r2, [r3, #92]	@ 0x5c
  
  if (stream_number > 3U)
 80014bc:	68fb      	ldr	r3, [r7, #12]
 80014be:	2b03      	cmp	r3, #3
 80014c0:	d909      	bls.n	80014d6 <DMA_CalcBaseAndBitshift+0x42>
  {
    /* return pointer to HISR and HIFCR */
    hdma->StreamBaseAddress = (((uint32_t)hdma->Instance & (uint32_t)(~0x3FFU)) + 4U);
 80014c2:	687b      	ldr	r3, [r7, #4]
 80014c4:	681b      	ldr	r3, [r3, #0]
 80014c6:	f423 737f 	bic.w	r3, r3, #1020	@ 0x3fc
 80014ca:	f023 0303 	bic.w	r3, r3, #3
 80014ce:	1d1a      	adds	r2, r3, #4
 80014d0:	687b      	ldr	r3, [r7, #4]
 80014d2:	659a      	str	r2, [r3, #88]	@ 0x58
 80014d4:	e007      	b.n	80014e6 <DMA_CalcBaseAndBitshift+0x52>
  }
  else
  {
    /* return pointer to LISR and LIFCR */
    hdma->StreamBaseAddress = ((uint32_t)hdma->Instance & (uint32_t)(~0x3FFU));
 80014d6:	687b      	ldr	r3, [r7, #4]
 80014d8:	681b      	ldr	r3, [r3, #0]
 80014da:	f423 737f 	bic.w	r3, r3, #1020	@ 0x3fc
 80014de:	f023 0303 	bic.w	r3, r3, #3
 80014e2:	687a      	ldr	r2, [r7, #4]
 80014e4:	6593      	str	r3, [r2, #88]	@ 0x58
  }
  
  return hdma->StreamBaseAddress;
 80014e6:	687b      	ldr	r3, [r7, #4]
 80014e8:	6d9b      	ldr	r3, [r3, #88]	@ 0x58
}
 80014ea:	4618      	mov	r0, r3
 80014ec:	3714      	adds	r7, #20
 80014ee:	46bd      	mov	sp, r7
 80014f0:	f85d 7b04 	ldr.w	r7, [sp], #4
 80014f4:	4770      	bx	lr
 80014f6:	bf00      	nop
 80014f8:	aaaaaaab 	.word	0xaaaaaaab
 80014fc:	08003520 	.word	0x08003520

08001500 <DMA_CheckFifoParam>:
  * @param  hdma       pointer to a DMA_HandleTypeDef structure that contains
  *                     the configuration information for the specified DMA Stream. 
  * @retval HAL status
  */
static HAL_StatusTypeDef DMA_CheckFifoParam(DMA_HandleTypeDef *hdma)
{
 8001500:	b480      	push	{r7}
 8001502:	b085      	sub	sp, #20
 8001504:	af00      	add	r7, sp, #0
 8001506:	6078      	str	r0, [r7, #4]
  HAL_StatusTypeDef status = HAL_OK;
 8001508:	2300      	movs	r3, #0
 800150a:	73fb      	strb	r3, [r7, #15]
  uint32_t tmp = hdma->Init.FIFOThreshold;
 800150c:	687b      	ldr	r3, [r7, #4]
 800150e:	6a9b      	ldr	r3, [r3, #40]	@ 0x28
 8001510:	60bb      	str	r3, [r7, #8]
  
  /* Memory Data size equal to Byte */
  if(hdma->Init.MemDataAlignment == DMA_MDATAALIGN_BYTE)
 8001512:	687b      	ldr	r3, [r7, #4]
 8001514:	699b      	ldr	r3, [r3, #24]
 8001516:	2b00      	cmp	r3, #0
 8001518:	d11f      	bne.n	800155a <DMA_CheckFifoParam+0x5a>
  {
    switch (tmp)
 800151a:	68bb      	ldr	r3, [r7, #8]
 800151c:	2b03      	cmp	r3, #3
 800151e:	d856      	bhi.n	80015ce <DMA_CheckFifoParam+0xce>
 8001520:	a201      	add	r2, pc, #4	@ (adr r2, 8001528 <DMA_CheckFifoParam+0x28>)
 8001522:	f852 f023 	ldr.w	pc, [r2, r3, lsl #2]
 8001526:	bf00      	nop
 8001528:	08001539 	.word	0x08001539
 800152c:	0800154b 	.word	0x0800154b
 8001530:	08001539 	.word	0x08001539
 8001534:	080015cf 	.word	0x080015cf
    {
    case DMA_FIFO_THRESHOLD_1QUARTERFULL:
    case DMA_FIFO_THRESHOLD_3QUARTERSFULL:
      if ((hdma->Init.MemBurst & DMA_SxCR_MBURST_1) == DMA_SxCR_MBURST_1)
 8001538:	687b      	ldr	r3, [r7, #4]
 800153a:	6adb      	ldr	r3, [r3, #44]	@ 0x2c
 800153c:	f003 7380 	and.w	r3, r3, #16777216	@ 0x1000000
 8001540:	2b00      	cmp	r3, #0
 8001542:	d046      	beq.n	80015d2 <DMA_CheckFifoParam+0xd2>
      {
        status = HAL_ERROR;
 8001544:	2301      	movs	r3, #1
 8001546:	73fb      	strb	r3, [r7, #15]
      }
      break;
 8001548:	e043      	b.n	80015d2 <DMA_CheckFifoParam+0xd2>
    case DMA_FIFO_THRESHOLD_HALFFULL:
      if (hdma->Init.MemBurst == DMA_MBURST_INC16)
 800154a:	687b      	ldr	r3, [r7, #4]
 800154c:	6adb      	ldr	r3, [r3, #44]	@ 0x2c
 800154e:	f1b3 7fc0 	cmp.w	r3, #25165824	@ 0x1800000
 8001552:	d140      	bne.n	80015d6 <DMA_CheckFifoParam+0xd6>
      {
        status = HAL_ERROR;
 8001554:	2301      	movs	r3, #1
 8001556:	73fb      	strb	r3, [r7, #15]
      }
      break;
 8001558:	e03d      	b.n	80015d6 <DMA_CheckFifoParam+0xd6>
      break;
    }
  }
  
  /* Memory Data size equal to Half-Word */
  else if (hdma->Init.MemDataAlignment == DMA_MDATAALIGN_HALFWORD)
 800155a:	687b      	ldr	r3, [r7, #4]
 800155c:	699b      	ldr	r3, [r3, #24]
 800155e:	f5b3 5f00 	cmp.w	r3, #8192	@ 0x2000
 8001562:	d121      	bne.n	80015a8 <DMA_CheckFifoParam+0xa8>
  {
    switch (tmp)
 8001564:	68bb      	ldr	r3, [r7, #8]
 8001566:	2b03      	cmp	r3, #3
 8001568:	d837      	bhi.n	80015da <DMA_CheckFifoParam+0xda>
 800156a:	a201      	add	r2, pc, #4	@ (adr r2, 8001570 <DMA_CheckFifoParam+0x70>)
 800156c:	f852 f023 	ldr.w	pc, [r2, r3, lsl #2]
 8001570:	08001581 	.word	0x08001581
 8001574:	08001587 	.word	0x08001587
 8001578:	08001581 	.word	0x08001581
 800157c:	08001599 	.word	0x08001599
    {
    case DMA_FIFO_THRESHOLD_1QUARTERFULL:
    case DMA_FIFO_THRESHOLD_3QUARTERSFULL:
      status = HAL_ERROR;
 8001580:	2301      	movs	r3, #1
 8001582:	73fb      	strb	r3, [r7, #15]
      break;
 8001584:	e030      	b.n	80015e8 <DMA_CheckFifoParam+0xe8>
    case DMA_FIFO_THRESHOLD_HALFFULL:
      if ((hdma->Init.MemBurst & DMA_SxCR_MBURST_1) == DMA_SxCR_MBURST_1)
 8001586:	687b      	ldr	r3, [r7, #4]
 8001588:	6adb      	ldr	r3, [r3, #44]	@ 0x2c
 800158a:	f003 7380 	and.w	r3, r3, #16777216	@ 0x1000000
 800158e:	2b00      	cmp	r3, #0
 8001590:	d025      	beq.n	80015de <DMA_CheckFifoParam+0xde>
      {
        status = HAL_ERROR;
 8001592:	2301      	movs	r3, #1
 8001594:	73fb      	strb	r3, [r7, #15]
      }
      break;
 8001596:	e022      	b.n	80015de <DMA_CheckFifoParam+0xde>
    case DMA_FIFO_THRESHOLD_FULL:
      if (hdma->Init.MemBurst == DMA_MBURST_INC16)
 8001598:	687b      	ldr	r3, [r7, #4]
 800159a:	6adb      	ldr	r3, [r3, #44]	@ 0x2c
 800159c:	f1b3 7fc0 	cmp.w	r3, #25165824	@ 0x1800000
 80015a0:	d11f      	bne.n	80015e2 <DMA_CheckFifoParam+0xe2>
      {
        status = HAL_ERROR;
 80015a2:	2301      	movs	r3, #1
 80015a4:	73fb      	strb	r3, [r7, #15]
      }
      break;   
 80015a6:	e01c      	b.n	80015e2 <DMA_CheckFifoParam+0xe2>
  }
  
  /* Memory Data size equal to Word */
  else
  {
    switch (tmp)
 80015a8:	68bb      	ldr	r3, [r7, #8]
 80015aa:	2b02      	cmp	r3, #2
 80015ac:	d903      	bls.n	80015b6 <DMA_CheckFifoParam+0xb6>
 80015ae:	68bb      	ldr	r3, [r7, #8]
 80015b0:	2b03      	cmp	r3, #3
 80015b2:	d003      	beq.n	80015bc <DMA_CheckFifoParam+0xbc>
      {
        status = HAL_ERROR;
      }
      break;
    default:
      break;
 80015b4:	e018      	b.n	80015e8 <DMA_CheckFifoParam+0xe8>
      status = HAL_ERROR;
 80015b6:	2301      	movs	r3, #1
 80015b8:	73fb      	strb	r3, [r7, #15]
      break;
 80015ba:	e015      	b.n	80015e8 <DMA_CheckFifoParam+0xe8>
      if ((hdma->Init.MemBurst & DMA_SxCR_MBURST_1) == DMA_SxCR_MBURST_1)
 80015bc:	687b      	ldr	r3, [r7, #4]
 80015be:	6adb      	ldr	r3, [r3, #44]	@ 0x2c
 80015c0:	f003 7380 	and.w	r3, r3, #16777216	@ 0x1000000
 80015c4:	2b00      	cmp	r3, #0
 80015c6:	d00e      	beq.n	80015e6 <DMA_CheckFifoParam+0xe6>
        status = HAL_ERROR;
 80015c8:	2301      	movs	r3, #1
 80015ca:	73fb      	strb	r3, [r7, #15]
      break;
 80015cc:	e00b      	b.n	80015e6 <DMA_CheckFifoParam+0xe6>
      break;
 80015ce:	bf00      	nop
 80015d0:	e00a      	b.n	80015e8 <DMA_CheckFifoParam+0xe8>
      break;
 80015d2:	bf00      	nop
 80015d4:	e008      	b.n	80015e8 <DMA_CheckFifoParam+0xe8>
      break;
 80015d6:	bf00      	nop
 80015d8:	e006      	b.n	80015e8 <DMA_CheckFifoParam+0xe8>
      break;
 80015da:	bf00      	nop
 80015dc:	e004      	b.n	80015e8 <DMA_CheckFifoParam+0xe8>
      break;
 80015de:	bf00      	nop
 80015e0:	e002      	b.n	80015e8 <DMA_CheckFifoParam+0xe8>
      break;   
 80015e2:	bf00      	nop
 80015e4:	e000      	b.n	80015e8 <DMA_CheckFifoParam+0xe8>
      break;
 80015e6:	bf00      	nop
    }
  } 
  
  return status; 
 80015e8:	7bfb      	ldrb	r3, [r7, #15]
}
 80015ea:	4618      	mov	r0, r3
 80015ec:	3714      	adds	r7, #20
 80015ee:	46bd      	mov	sp, r7
 80015f0:	f85d 7b04 	ldr.w	r7, [sp], #4
 80015f4:	4770      	bx	lr
 80015f6:	bf00      	nop

080015f8 <HAL_GPIO_Init>:
  * @param  GPIO_Init pointer to a GPIO_InitTypeDef structure that contains
  *         the configuration information for the specified GPIO peripheral.
  * @retval None
  */
void HAL_GPIO_Init(GPIO_TypeDef  *GPIOx, GPIO_InitTypeDef *GPIO_Init)
{
 80015f8:	b480      	push	{r7}
 80015fa:	b089      	sub	sp, #36	@ 0x24
 80015fc:	af00      	add	r7, sp, #0
 80015fe:	6078      	str	r0, [r7, #4]
 8001600:	6039      	str	r1, [r7, #0]
  uint32_t position;
  uint32_t ioposition = 0x00U;
 8001602:	2300      	movs	r3, #0
 8001604:	617b      	str	r3, [r7, #20]
  uint32_t iocurrent = 0x00U;
 8001606:	2300      	movs	r3, #0
 8001608:	613b      	str	r3, [r7, #16]
  uint32_t temp = 0x00U;
 800160a:	2300      	movs	r3, #0
 800160c:	61bb      	str	r3, [r7, #24]
  assert_param(IS_GPIO_ALL_INSTANCE(GPIOx));
  assert_param(IS_GPIO_PIN(GPIO_Init->Pin));
  assert_param(IS_GPIO_MODE(GPIO_Init->Mode));

  /* Configure the port pins */
  for(position = 0U; position < GPIO_NUMBER; position++)
 800160e:	2300      	movs	r3, #0
 8001610:	61fb      	str	r3, [r7, #28]
 8001612:	e159      	b.n	80018c8 <HAL_GPIO_Init+0x2d0>
  {
    /* Get the IO position */
    ioposition = 0x01U << position;
 8001614:	2201      	movs	r2, #1
 8001616:	69fb      	ldr	r3, [r7, #28]
 8001618:	fa02 f303 	lsl.w	r3, r2, r3
 800161c:	617b      	str	r3, [r7, #20]
    /* Get the current IO position */
    iocurrent = (uint32_t)(GPIO_Init->Pin) & ioposition;
 800161e:	683b      	ldr	r3, [r7, #0]
 8001620:	681b      	ldr	r3, [r3, #0]
 8001622:	697a      	ldr	r2, [r7, #20]
 8001624:	4013      	ands	r3, r2
 8001626:	613b      	str	r3, [r7, #16]

    if(iocurrent == ioposition)
 8001628:	693a      	ldr	r2, [r7, #16]
 800162a:	697b      	ldr	r3, [r7, #20]
 800162c:	429a      	cmp	r2, r3
 800162e:	f040 8148 	bne.w	80018c2 <HAL_GPIO_Init+0x2ca>
    {
      /*--------------------- GPIO Mode Configuration ------------------------*/
      /* In case of Output or Alternate function mode selection */
      if(((GPIO_Init->Mode & GPIO_MODE) == MODE_OUTPUT) || \
 8001632:	683b      	ldr	r3, [r7, #0]
 8001634:	685b      	ldr	r3, [r3, #4]
 8001636:	f003 0303 	and.w	r3, r3, #3
 800163a:	2b01      	cmp	r3, #1
 800163c:	d005      	beq.n	800164a <HAL_GPIO_Init+0x52>
          (GPIO_Init->Mode & GPIO_MODE) == MODE_AF)
 800163e:	683b      	ldr	r3, [r7, #0]
 8001640:	685b      	ldr	r3, [r3, #4]
 8001642:	f003 0303 	and.w	r3, r3, #3
      if(((GPIO_Init->Mode & GPIO_MODE) == MODE_OUTPUT) || \
 8001646:	2b02      	cmp	r3, #2
 8001648:	d130      	bne.n	80016ac <HAL_GPIO_Init+0xb4>
      {
        /* Check the Speed parameter */
        assert_param(IS_GPIO_SPEED(GPIO_Init->Speed));
        /* Configure the IO Speed */
        temp = GPIOx->OSPEEDR; 
 800164a:	687b      	ldr	r3, [r7, #4]
 800164c:	689b      	ldr	r3, [r3, #8]
 800164e:	61bb      	str	r3, [r7, #24]
        temp &= ~(GPIO_OSPEEDER_OSPEEDR0 << (position * 2U));
 8001650:	69fb      	ldr	r3, [r7, #28]
 8001652:	005b      	lsls	r3, r3, #1
 8001654:	2203      	movs	r2, #3
 8001656:	fa02 f303 	lsl.w	r3, r2, r3
 800165a:	43db      	mvns	r3, r3
 800165c:	69ba      	ldr	r2, [r7, #24]
 800165e:	4013      	ands	r3, r2
 8001660:	61bb      	str	r3, [r7, #24]
        temp |= (GPIO_Init->Speed << (position * 2U));
 8001662:	683b      	ldr	r3, [r7, #0]
 8001664:	68da      	ldr	r2, [r3, #12]
 8001666:	69fb      	ldr	r3, [r7, #28]
 8001668:	005b      	lsls	r3, r3, #1
 800166a:	fa02 f303 	lsl.w	r3, r2, r3
 800166e:	69ba      	ldr	r2, [r7, #24]
 8001670:	4313      	orrs	r3, r2
 8001672:	61bb      	str	r3, [r7, #24]
        GPIOx->OSPEEDR = temp;
 8001674:	687b      	ldr	r3, [r7, #4]
 8001676:	69ba      	ldr	r2, [r7, #24]
 8001678:	609a      	str	r2, [r3, #8]

        /* Configure the IO Output Type */
        temp = GPIOx->OTYPER;
 800167a:	687b      	ldr	r3, [r7, #4]
 800167c:	685b      	ldr	r3, [r3, #4]
 800167e:	61bb      	str	r3, [r7, #24]
        temp &= ~(GPIO_OTYPER_OT_0 << position) ;
 8001680:	2201      	movs	r2, #1
 8001682:	69fb      	ldr	r3, [r7, #28]
 8001684:	fa02 f303 	lsl.w	r3, r2, r3
 8001688:	43db      	mvns	r3, r3
 800168a:	69ba      	ldr	r2, [r7, #24]
 800168c:	4013      	ands	r3, r2
 800168e:	61bb      	str	r3, [r7, #24]
        temp |= (((GPIO_Init->Mode & OUTPUT_TYPE) >> OUTPUT_TYPE_Pos) << position);
 8001690:	683b      	ldr	r3, [r7, #0]
 8001692:	685b      	ldr	r3, [r3, #4]
 8001694:	091b      	lsrs	r3, r3, #4
 8001696:	f003 0201 	and.w	r2, r3, #1
 800169a:	69fb      	ldr	r3, [r7, #28]
 800169c:	fa02 f303 	lsl.w	r3, r2, r3
 80016a0:	69ba      	ldr	r2, [r7, #24]
 80016a2:	4313      	orrs	r3, r2
 80016a4:	61bb      	str	r3, [r7, #24]
        GPIOx->OTYPER = temp;
 80016a6:	687b      	ldr	r3, [r7, #4]
 80016a8:	69ba      	ldr	r2, [r7, #24]
 80016aa:	605a      	str	r2, [r3, #4]
       }

      if((GPIO_Init->Mode & GPIO_MODE) != MODE_ANALOG)
 80016ac:	683b      	ldr	r3, [r7, #0]
 80016ae:	685b      	ldr	r3, [r3, #4]
 80016b0:	f003 0303 	and.w	r3, r3, #3
 80016b4:	2b03      	cmp	r3, #3
 80016b6:	d017      	beq.n	80016e8 <HAL_GPIO_Init+0xf0>
      {
        /* Check the parameters */
        assert_param(IS_GPIO_PULL(GPIO_Init->Pull));
        
        /* Activate the Pull-up or Pull down resistor for the current IO */
        temp = GPIOx->PUPDR;
 80016b8:	687b      	ldr	r3, [r7, #4]
 80016ba:	68db      	ldr	r3, [r3, #12]
 80016bc:	61bb      	str	r3, [r7, #24]
        temp &= ~(GPIO_PUPDR_PUPDR0 << (position * 2U));
 80016be:	69fb      	ldr	r3, [r7, #28]
 80016c0:	005b      	lsls	r3, r3, #1
 80016c2:	2203      	movs	r2, #3
 80016c4:	fa02 f303 	lsl.w	r3, r2, r3
 80016c8:	43db      	mvns	r3, r3
 80016ca:	69ba      	ldr	r2, [r7, #24]
 80016cc:	4013      	ands	r3, r2
 80016ce:	61bb      	str	r3, [r7, #24]
        temp |= ((GPIO_Init->Pull) << (position * 2U));
 80016d0:	683b      	ldr	r3, [r7, #0]
 80016d2:	689a      	ldr	r2, [r3, #8]
 80016d4:	69fb      	ldr	r3, [r7, #28]
 80016d6:	005b      	lsls	r3, r3, #1
 80016d8:	fa02 f303 	lsl.w	r3, r2, r3
 80016dc:	69ba      	ldr	r2, [r7, #24]
 80016de:	4313      	orrs	r3, r2
 80016e0:	61bb      	str	r3, [r7, #24]
        GPIOx->PUPDR = temp;
 80016e2:	687b      	ldr	r3, [r7, #4]
 80016e4:	69ba      	ldr	r2, [r7, #24]
 80016e6:	60da      	str	r2, [r3, #12]
      }

      /* In case of Alternate function mode selection */
      if((GPIO_Init->Mode & GPIO_MODE) == MODE_AF)
 80016e8:	683b      	ldr	r3, [r7, #0]
 80016ea:	685b      	ldr	r3, [r3, #4]
 80016ec:	f003 0303 	and.w	r3, r3, #3
 80016f0:	2b02      	cmp	r3, #2
 80016f2:	d123      	bne.n	800173c <HAL_GPIO_Init+0x144>
      {
        /* Check the Alternate function parameter */
        assert_param(IS_GPIO_AF(GPIO_Init->Alternate));
        /* Configure Alternate function mapped with the current IO */
        temp = GPIOx->AFR[position >> 3U];
 80016f4:	69fb      	ldr	r3, [r7, #28]
 80016f6:	08da      	lsrs	r2, r3, #3
 80016f8:	687b      	ldr	r3, [r7, #4]
 80016fa:	3208      	adds	r2, #8
 80016fc:	f853 3022 	ldr.w	r3, [r3, r2, lsl #2]
 8001700:	61bb      	str	r3, [r7, #24]
        temp &= ~(0xFU << ((uint32_t)(position & 0x07U) * 4U)) ;
 8001702:	69fb      	ldr	r3, [r7, #28]
 8001704:	f003 0307 	and.w	r3, r3, #7
 8001708:	009b      	lsls	r3, r3, #2
 800170a:	220f      	movs	r2, #15
 800170c:	fa02 f303 	lsl.w	r3, r2, r3
 8001710:	43db      	mvns	r3, r3
 8001712:	69ba      	ldr	r2, [r7, #24]
 8001714:	4013      	ands	r3, r2
 8001716:	61bb      	str	r3, [r7, #24]
        temp |= ((uint32_t)(GPIO_Init->Alternate) << (((uint32_t)position & 0x07U) * 4U));
 8001718:	683b      	ldr	r3, [r7, #0]
 800171a:	691a      	ldr	r2, [r3, #16]
 800171c:	69fb      	ldr	r3, [r7, #28]
 800171e:	f003 0307 	and.w	r3, r3, #7
 8001722:	009b      	lsls	r3, r3, #2
 8001724:	fa02 f303 	lsl.w	r3, r2, r3
 8001728:	69ba      	ldr	r2, [r7, #24]
 800172a:	4313      	orrs	r3, r2
 800172c:	61bb      	str	r3, [r7, #24]
        GPIOx->AFR[position >> 3U] = temp;
 800172e:	69fb      	ldr	r3, [r7, #28]
 8001730:	08da      	lsrs	r2, r3, #3
 8001732:	687b      	ldr	r3, [r7, #4]
 8001734:	3208      	adds	r2, #8
 8001736:	69b9      	ldr	r1, [r7, #24]
 8001738:	f843 1022 	str.w	r1, [r3, r2, lsl #2]
      }

      /* Configure IO Direction mode (Input, Output, Alternate or Analog) */
      temp = GPIOx->MODER;
 800173c:	687b      	ldr	r3, [r7, #4]
 800173e:	681b      	ldr	r3, [r3, #0]
 8001740:	61bb      	str	r3, [r7, #24]
      temp &= ~(GPIO_MODER_MODER0 << (position * 2U));
 8001742:	69fb      	ldr	r3, [r7, #28]
 8001744:	005b      	lsls	r3, r3, #1
 8001746:	2203      	movs	r2, #3
 8001748:	fa02 f303 	lsl.w	r3, r2, r3
 800174c:	43db      	mvns	r3, r3
 800174e:	69ba      	ldr	r2, [r7, #24]
 8001750:	4013      	ands	r3, r2
 8001752:	61bb      	str	r3, [r7, #24]
      temp |= ((GPIO_Init->Mode & GPIO_MODE) << (position * 2U));
 8001754:	683b      	ldr	r3, [r7, #0]
 8001756:	685b      	ldr	r3, [r3, #4]
 8001758:	f003 0203 	and.w	r2, r3, #3
 800175c:	69fb      	ldr	r3, [r7, #28]
 800175e:	005b      	lsls	r3, r3, #1
 8001760:	fa02 f303 	lsl.w	r3, r2, r3
 8001764:	69ba      	ldr	r2, [r7, #24]
 8001766:	4313      	orrs	r3, r2
 8001768:	61bb      	str	r3, [r7, #24]
      GPIOx->MODER = temp;
 800176a:	687b      	ldr	r3, [r7, #4]
 800176c:	69ba      	ldr	r2, [r7, #24]
 800176e:	601a      	str	r2, [r3, #0]

      /*--------------------- EXTI Mode Configuration ------------------------*/
      /* Configure the External Interrupt or event for the current IO */
      if((GPIO_Init->Mode & EXTI_MODE) != 0x00U)
 8001770:	683b      	ldr	r3, [r7, #0]
 8001772:	685b      	ldr	r3, [r3, #4]
 8001774:	f403 3340 	and.w	r3, r3, #196608	@ 0x30000
 8001778:	2b00      	cmp	r3, #0
 800177a:	f000 80a2 	beq.w	80018c2 <HAL_GPIO_Init+0x2ca>
      {
        /* Enable SYSCFG Clock */
        __HAL_RCC_SYSCFG_CLK_ENABLE();
 800177e:	2300      	movs	r3, #0
 8001780:	60fb      	str	r3, [r7, #12]
 8001782:	4b57      	ldr	r3, [pc, #348]	@ (80018e0 <HAL_GPIO_Init+0x2e8>)
 8001784:	6c5b      	ldr	r3, [r3, #68]	@ 0x44
 8001786:	4a56      	ldr	r2, [pc, #344]	@ (80018e0 <HAL_GPIO_Init+0x2e8>)
 8001788:	f443 4380 	orr.w	r3, r3, #16384	@ 0x4000
 800178c:	6453      	str	r3, [r2, #68]	@ 0x44
 800178e:	4b54      	ldr	r3, [pc, #336]	@ (80018e0 <HAL_GPIO_Init+0x2e8>)
 8001790:	6c5b      	ldr	r3, [r3, #68]	@ 0x44
 8001792:	f403 4380 	and.w	r3, r3, #16384	@ 0x4000
 8001796:	60fb      	str	r3, [r7, #12]
 8001798:	68fb      	ldr	r3, [r7, #12]

        temp = SYSCFG->EXTICR[position >> 2U];
 800179a:	4a52      	ldr	r2, [pc, #328]	@ (80018e4 <HAL_GPIO_Init+0x2ec>)
 800179c:	69fb      	ldr	r3, [r7, #28]
 800179e:	089b      	lsrs	r3, r3, #2
 80017a0:	3302      	adds	r3, #2
 80017a2:	f852 3023 	ldr.w	r3, [r2, r3, lsl #2]
 80017a6:	61bb      	str	r3, [r7, #24]
        temp &= ~(0x0FU << (4U * (position & 0x03U)));
 80017a8:	69fb      	ldr	r3, [r7, #28]
 80017aa:	f003 0303 	and.w	r3, r3, #3
 80017ae:	009b      	lsls	r3, r3, #2
 80017b0:	220f      	movs	r2, #15
 80017b2:	fa02 f303 	lsl.w	r3, r2, r3
 80017b6:	43db      	mvns	r3, r3
 80017b8:	69ba      	ldr	r2, [r7, #24]
 80017ba:	4013      	ands	r3, r2
 80017bc:	61bb      	str	r3, [r7, #24]
        temp |= ((uint32_t)(GPIO_GET_INDEX(GPIOx)) << (4U * (position & 0x03U)));
 80017be:	687b      	ldr	r3, [r7, #4]
 80017c0:	4a49      	ldr	r2, [pc, #292]	@ (80018e8 <HAL_GPIO_Init+0x2f0>)
 80017c2:	4293      	cmp	r3, r2
 80017c4:	d019      	beq.n	80017fa <HAL_GPIO_Init+0x202>
 80017c6:	687b      	ldr	r3, [r7, #4]
 80017c8:	4a48      	ldr	r2, [pc, #288]	@ (80018ec <HAL_GPIO_Init+0x2f4>)
 80017ca:	4293      	cmp	r3, r2
 80017cc:	d013      	beq.n	80017f6 <HAL_GPIO_Init+0x1fe>
 80017ce:	687b      	ldr	r3, [r7, #4]
 80017d0:	4a47      	ldr	r2, [pc, #284]	@ (80018f0 <HAL_GPIO_Init+0x2f8>)
 80017d2:	4293      	cmp	r3, r2
 80017d4:	d00d      	beq.n	80017f2 <HAL_GPIO_Init+0x1fa>
 80017d6:	687b      	ldr	r3, [r7, #4]
 80017d8:	4a46      	ldr	r2, [pc, #280]	@ (80018f4 <HAL_GPIO_Init+0x2fc>)
 80017da:	4293      	cmp	r3, r2
 80017dc:	d007      	beq.n	80017ee <HAL_GPIO_Init+0x1f6>
 80017de:	687b      	ldr	r3, [r7, #4]
 80017e0:	4a45      	ldr	r2, [pc, #276]	@ (80018f8 <HAL_GPIO_Init+0x300>)
 80017e2:	4293      	cmp	r3, r2
 80017e4:	d101      	bne.n	80017ea <HAL_GPIO_Init+0x1f2>
 80017e6:	2304      	movs	r3, #4
 80017e8:	e008      	b.n	80017fc <HAL_GPIO_Init+0x204>
 80017ea:	2307      	movs	r3, #7
 80017ec:	e006      	b.n	80017fc <HAL_GPIO_Init+0x204>
 80017ee:	2303      	movs	r3, #3
 80017f0:	e004      	b.n	80017fc <HAL_GPIO_Init+0x204>
 80017f2:	2302      	movs	r3, #2
 80017f4:	e002      	b.n	80017fc <HAL_GPIO_Init+0x204>
 80017f6:	2301      	movs	r3, #1
 80017f8:	e000      	b.n	80017fc <HAL_GPIO_Init+0x204>
 80017fa:	2300      	movs	r3, #0
 80017fc:	69fa      	ldr	r2, [r7, #28]
 80017fe:	f002 0203 	and.w	r2, r2, #3
 8001802:	0092      	lsls	r2, r2, #2
 8001804:	4093      	lsls	r3, r2
 8001806:	69ba      	ldr	r2, [r7, #24]
 8001808:	4313      	orrs	r3, r2
 800180a:	61bb      	str	r3, [r7, #24]
        SYSCFG->EXTICR[position >> 2U] = temp;
 800180c:	4935      	ldr	r1, [pc, #212]	@ (80018e4 <HAL_GPIO_Init+0x2ec>)
 800180e:	69fb      	ldr	r3, [r7, #28]
 8001810:	089b      	lsrs	r3, r3, #2
 8001812:	3302      	adds	r3, #2
 8001814:	69ba      	ldr	r2, [r7, #24]
 8001816:	f841 2023 	str.w	r2, [r1, r3, lsl #2]

        /* Clear Rising Falling edge configuration */
        temp = EXTI->RTSR;
 800181a:	4b38      	ldr	r3, [pc, #224]	@ (80018fc <HAL_GPIO_Init+0x304>)
 800181c:	689b      	ldr	r3, [r3, #8]
 800181e:	61bb      	str	r3, [r7, #24]
        temp &= ~((uint32_t)iocurrent);
 8001820:	693b      	ldr	r3, [r7, #16]
 8001822:	43db      	mvns	r3, r3
 8001824:	69ba      	ldr	r2, [r7, #24]
 8001826:	4013      	ands	r3, r2
 8001828:	61bb      	str	r3, [r7, #24]
        if((GPIO_Init->Mode & TRIGGER_RISING) != 0x00U)
 800182a:	683b      	ldr	r3, [r7, #0]
 800182c:	685b      	ldr	r3, [r3, #4]
 800182e:	f403 1380 	and.w	r3, r3, #1048576	@ 0x100000
 8001832:	2b00      	cmp	r3, #0
 8001834:	d003      	beq.n	800183e <HAL_GPIO_Init+0x246>
        {
          temp |= iocurrent;
 8001836:	69ba      	ldr	r2, [r7, #24]
 8001838:	693b      	ldr	r3, [r7, #16]
 800183a:	4313      	orrs	r3, r2
 800183c:	61bb      	str	r3, [r7, #24]
        }
        EXTI->RTSR = temp;
 800183e:	4a2f      	ldr	r2, [pc, #188]	@ (80018fc <HAL_GPIO_Init+0x304>)
 8001840:	69bb      	ldr	r3, [r7, #24]
 8001842:	6093      	str	r3, [r2, #8]

        temp = EXTI->FTSR;
 8001844:	4b2d      	ldr	r3, [pc, #180]	@ (80018fc <HAL_GPIO_Init+0x304>)
 8001846:	68db      	ldr	r3, [r3, #12]
 8001848:	61bb      	str	r3, [r7, #24]
        temp &= ~((uint32_t)iocurrent);
 800184a:	693b      	ldr	r3, [r7, #16]
 800184c:	43db      	mvns	r3, r3
 800184e:	69ba      	ldr	r2, [r7, #24]
 8001850:	4013      	ands	r3, r2
 8001852:	61bb      	str	r3, [r7, #24]
        if((GPIO_Init->Mode & TRIGGER_FALLING) != 0x00U)
 8001854:	683b      	ldr	r3, [r7, #0]
 8001856:	685b      	ldr	r3, [r3, #4]
 8001858:	f403 1300 	and.w	r3, r3, #2097152	@ 0x200000
 800185c:	2b00      	cmp	r3, #0
 800185e:	d003      	beq.n	8001868 <HAL_GPIO_Init+0x270>
        {
          temp |= iocurrent;
 8001860:	69ba      	ldr	r2, [r7, #24]
 8001862:	693b      	ldr	r3, [r7, #16]
 8001864:	4313      	orrs	r3, r2
 8001866:	61bb      	str	r3, [r7, #24]
        }
        EXTI->FTSR = temp;
 8001868:	4a24      	ldr	r2, [pc, #144]	@ (80018fc <HAL_GPIO_Init+0x304>)
 800186a:	69bb      	ldr	r3, [r7, #24]
 800186c:	60d3      	str	r3, [r2, #12]

        temp = EXTI->EMR;
 800186e:	4b23      	ldr	r3, [pc, #140]	@ (80018fc <HAL_GPIO_Init+0x304>)
 8001870:	685b      	ldr	r3, [r3, #4]
 8001872:	61bb      	str	r3, [r7, #24]
        temp &= ~((uint32_t)iocurrent);
 8001874:	693b      	ldr	r3, [r7, #16]
 8001876:	43db      	mvns	r3, r3
 8001878:	69ba      	ldr	r2, [r7, #24]
 800187a:	4013      	ands	r3, r2
 800187c:	61bb      	str	r3, [r7, #24]
        if((GPIO_Init->Mode & EXTI_EVT) != 0x00U)
 800187e:	683b      	ldr	r3, [r7, #0]
 8001880:	685b      	ldr	r3, [r3, #4]
 8001882:	f403 3300 	and.w	r3, r3, #131072	@ 0x20000
 8001886:	2b00      	cmp	r3, #0
 8001888:	d003      	beq.n	8001892 <HAL_GPIO_Init+0x29a>
        {
          temp |= iocurrent;
 800188a:	69ba      	ldr	r2, [r7, #24]
 800188c:	693b      	ldr	r3, [r7, #16]
 800188e:	4313      	orrs	r3, r2
 8001890:	61bb      	str	r3, [r7, #24]
        }
        EXTI->EMR = temp;
 8001892:	4a1a      	ldr	r2, [pc, #104]	@ (80018fc <HAL_GPIO_Init+0x304>)
 8001894:	69bb      	ldr	r3, [r7, #24]
 8001896:	6053      	str	r3, [r2, #4]

        /* Clear EXTI line configuration */
        temp = EXTI->IMR;
 8001898:	4b18      	ldr	r3, [pc, #96]	@ (80018fc <HAL_GPIO_Init+0x304>)
 800189a:	681b      	ldr	r3, [r3, #0]
 800189c:	61bb      	str	r3, [r7, #24]
        temp &= ~((uint32_t)iocurrent);
 800189e:	693b      	ldr	r3, [r7, #16]
 80018a0:	43db      	mvns	r3, r3
 80018a2:	69ba      	ldr	r2, [r7, #24]
 80018a4:	4013      	ands	r3, r2
 80018a6:	61bb      	str	r3, [r7, #24]
        if((GPIO_Init->Mode & EXTI_IT) != 0x00U)
 80018a8:	683b      	ldr	r3, [r7, #0]
 80018aa:	685b      	ldr	r3, [r3, #4]
 80018ac:	f403 3380 	and.w	r3, r3, #65536	@ 0x10000
 80018b0:	2b00      	cmp	r3, #0
 80018b2:	d003      	beq.n	80018bc <HAL_GPIO_Init+0x2c4>
        {
          temp |= iocurrent;
 80018b4:	69ba      	ldr	r2, [r7, #24]
 80018b6:	693b      	ldr	r3, [r7, #16]
 80018b8:	4313      	orrs	r3, r2
 80018ba:	61bb      	str	r3, [r7, #24]
        }
        EXTI->IMR = temp;
 80018bc:	4a0f      	ldr	r2, [pc, #60]	@ (80018fc <HAL_GPIO_Init+0x304>)
 80018be:	69bb      	ldr	r3, [r7, #24]
 80018c0:	6013      	str	r3, [r2, #0]
  for(position = 0U; position < GPIO_NUMBER; position++)
 80018c2:	69fb      	ldr	r3, [r7, #28]
 80018c4:	3301      	adds	r3, #1
 80018c6:	61fb      	str	r3, [r7, #28]
 80018c8:	69fb      	ldr	r3, [r7, #28]
 80018ca:	2b0f      	cmp	r3, #15
 80018cc:	f67f aea2 	bls.w	8001614 <HAL_GPIO_Init+0x1c>
      }
    }
  }
}
 80018d0:	bf00      	nop
 80018d2:	bf00      	nop
 80018d4:	3724      	adds	r7, #36	@ 0x24
 80018d6:	46bd      	mov	sp, r7
 80018d8:	f85d 7b04 	ldr.w	r7, [sp], #4
 80018dc:	4770      	bx	lr
 80018de:	bf00      	nop
 80018e0:	40023800 	.word	0x40023800
 80018e4:	40013800 	.word	0x40013800
 80018e8:	40020000 	.word	0x40020000
 80018ec:	40020400 	.word	0x40020400
 80018f0:	40020800 	.word	0x40020800
 80018f4:	40020c00 	.word	0x40020c00
 80018f8:	40021000 	.word	0x40021000
 80018fc:	40013c00 	.word	0x40013c00

08001900 <HAL_RCC_OscConfig>:
  *         supported by this API. User should request a transition to HSE Off
  *         first and then HSE On or HSE Bypass.
  * @retval HAL status
  */
__weak HAL_StatusTypeDef HAL_RCC_OscConfig(RCC_OscInitTypeDef  *RCC_OscInitStruct)
{
 8001900:	b580      	push	{r7, lr}
 8001902:	b086      	sub	sp, #24
 8001904:	af00      	add	r7, sp, #0
 8001906:	6078      	str	r0, [r7, #4]
  uint32_t tickstart;
  uint32_t pll_config;
  /* Check Null pointer */
  if (RCC_OscInitStruct == NULL)
 8001908:	687b      	ldr	r3, [r7, #4]
 800190a:	2b00      	cmp	r3, #0
 800190c:	d101      	bne.n	8001912 <HAL_RCC_OscConfig+0x12>
  {
    return HAL_ERROR;
 800190e:	2301      	movs	r3, #1
 8001910:	e267      	b.n	8001de2 <HAL_RCC_OscConfig+0x4e2>
  }

  /* Check the parameters */
  assert_param(IS_RCC_OSCILLATORTYPE(RCC_OscInitStruct->OscillatorType));
  /*------------------------------- HSE Configuration ------------------------*/
  if (((RCC_OscInitStruct->OscillatorType) & RCC_OSCILLATORTYPE_HSE) == RCC_OSCILLATORTYPE_HSE)
 8001912:	687b      	ldr	r3, [r7, #4]
 8001914:	681b      	ldr	r3, [r3, #0]
 8001916:	f003 0301 	and.w	r3, r3, #1
 800191a:	2b00      	cmp	r3, #0
 800191c:	d075      	beq.n	8001a0a <HAL_RCC_OscConfig+0x10a>
  {
    /* Check the parameters */
    assert_param(IS_RCC_HSE(RCC_OscInitStruct->HSEState));
    /* When the HSE is used as system clock or clock source for PLL in these cases HSE will not disabled */
    if ((__HAL_RCC_GET_SYSCLK_SOURCE() == RCC_CFGR_SWS_HSE) || \
 800191e:	4b88      	ldr	r3, [pc, #544]	@ (8001b40 <HAL_RCC_OscConfig+0x240>)
 8001920:	689b      	ldr	r3, [r3, #8]
 8001922:	f003 030c 	and.w	r3, r3, #12
 8001926:	2b04      	cmp	r3, #4
 8001928:	d00c      	beq.n	8001944 <HAL_RCC_OscConfig+0x44>
        ((__HAL_RCC_GET_SYSCLK_SOURCE() == RCC_CFGR_SWS_PLL) && ((RCC->PLLCFGR & RCC_PLLCFGR_PLLSRC) == RCC_PLLCFGR_PLLSRC_HSE)))
 800192a:	4b85      	ldr	r3, [pc, #532]	@ (8001b40 <HAL_RCC_OscConfig+0x240>)
 800192c:	689b      	ldr	r3, [r3, #8]
 800192e:	f003 030c 	and.w	r3, r3, #12
    if ((__HAL_RCC_GET_SYSCLK_SOURCE() == RCC_CFGR_SWS_HSE) || \
 8001932:	2b08      	cmp	r3, #8
 8001934:	d112      	bne.n	800195c <HAL_RCC_OscConfig+0x5c>
        ((__HAL_RCC_GET_SYSCLK_SOURCE() == RCC_CFGR_SWS_PLL) && ((RCC->PLLCFGR & RCC_PLLCFGR_PLLSRC) == RCC_PLLCFGR_PLLSRC_HSE)))
 8001936:	4b82      	ldr	r3, [pc, #520]	@ (8001b40 <HAL_RCC_OscConfig+0x240>)
 8001938:	685b      	ldr	r3, [r3, #4]
 800193a:	f403 0380 	and.w	r3, r3, #4194304	@ 0x400000
 800193e:	f5b3 0f80 	cmp.w	r3, #4194304	@ 0x400000
 8001942:	d10b      	bne.n	800195c <HAL_RCC_OscConfig+0x5c>
    {
      if ((__HAL_RCC_GET_FLAG(RCC_FLAG_HSERDY) != RESET) && (RCC_OscInitStruct->HSEState == RCC_HSE_OFF))
 8001944:	4b7e      	ldr	r3, [pc, #504]	@ (8001b40 <HAL_RCC_OscConfig+0x240>)
 8001946:	681b      	ldr	r3, [r3, #0]
 8001948:	f403 3300 	and.w	r3, r3, #131072	@ 0x20000
 800194c:	2b00      	cmp	r3, #0
 800194e:	d05b      	beq.n	8001a08 <HAL_RCC_OscConfig+0x108>
 8001950:	687b      	ldr	r3, [r7, #4]
 8001952:	685b      	ldr	r3, [r3, #4]
 8001954:	2b00      	cmp	r3, #0
 8001956:	d157      	bne.n	8001a08 <HAL_RCC_OscConfig+0x108>
      {
        return HAL_ERROR;
 8001958:	2301      	movs	r3, #1
 800195a:	e242      	b.n	8001de2 <HAL_RCC_OscConfig+0x4e2>
      }
    }
    else
    {
      /* Set the new HSE configuration ---------------------------------------*/
      __HAL_RCC_HSE_CONFIG(RCC_OscInitStruct->HSEState);
 800195c:	687b      	ldr	r3, [r7, #4]
 800195e:	685b      	ldr	r3, [r3, #4]
 8001960:	f5b3 3f80 	cmp.w	r3, #65536	@ 0x10000
 8001964:	d106      	bne.n	8001974 <HAL_RCC_OscConfig+0x74>
 8001966:	4b76      	ldr	r3, [pc, #472]	@ (8001b40 <HAL_RCC_OscConfig+0x240>)
 8001968:	681b      	ldr	r3, [r3, #0]
 800196a:	4a75      	ldr	r2, [pc, #468]	@ (8001b40 <HAL_RCC_OscConfig+0x240>)
 800196c:	f443 3380 	orr.w	r3, r3, #65536	@ 0x10000
 8001970:	6013      	str	r3, [r2, #0]
 8001972:	e01d      	b.n	80019b0 <HAL_RCC_OscConfig+0xb0>
 8001974:	687b      	ldr	r3, [r7, #4]
 8001976:	685b      	ldr	r3, [r3, #4]
 8001978:	f5b3 2fa0 	cmp.w	r3, #327680	@ 0x50000
 800197c:	d10c      	bne.n	8001998 <HAL_RCC_OscConfig+0x98>
 800197e:	4b70      	ldr	r3, [pc, #448]	@ (8001b40 <HAL_RCC_OscConfig+0x240>)
 8001980:	681b      	ldr	r3, [r3, #0]
 8001982:	4a6f      	ldr	r2, [pc, #444]	@ (8001b40 <HAL_RCC_OscConfig+0x240>)
 8001984:	f443 2380 	orr.w	r3, r3, #262144	@ 0x40000
 8001988:	6013      	str	r3, [r2, #0]
 800198a:	4b6d      	ldr	r3, [pc, #436]	@ (8001b40 <HAL_RCC_OscConfig+0x240>)
 800198c:	681b      	ldr	r3, [r3, #0]
 800198e:	4a6c      	ldr	r2, [pc, #432]	@ (8001b40 <HAL_RCC_OscConfig+0x240>)
 8001990:	f443 3380 	orr.w	r3, r3, #65536	@ 0x10000
 8001994:	6013      	str	r3, [r2, #0]
 8001996:	e00b      	b.n	80019b0 <HAL_RCC_OscConfig+0xb0>
 8001998:	4b69      	ldr	r3, [pc, #420]	@ (8001b40 <HAL_RCC_OscConfig+0x240>)
 800199a:	681b      	ldr	r3, [r3, #0]
 800199c:	4a68      	ldr	r2, [pc, #416]	@ (8001b40 <HAL_RCC_OscConfig+0x240>)
 800199e:	f423 3380 	bic.w	r3, r3, #65536	@ 0x10000
 80019a2:	6013      	str	r3, [r2, #0]
 80019a4:	4b66      	ldr	r3, [pc, #408]	@ (8001b40 <HAL_RCC_OscConfig+0x240>)
 80019a6:	681b      	ldr	r3, [r3, #0]
 80019a8:	4a65      	ldr	r2, [pc, #404]	@ (8001b40 <HAL_RCC_OscConfig+0x240>)
 80019aa:	f423 2380 	bic.w	r3, r3, #262144	@ 0x40000
 80019ae:	6013      	str	r3, [r2, #0]

      /* Check the HSE State */
      if ((RCC_OscInitStruct->HSEState) != RCC_HSE_OFF)
 80019b0:	687b      	ldr	r3, [r7, #4]
 80019b2:	685b      	ldr	r3, [r3, #4]
 80019b4:	2b00      	cmp	r3, #0
 80019b6:	d013      	beq.n	80019e0 <HAL_RCC_OscConfig+0xe0>
      {
        /* Get Start Tick */
        tickstart = HAL_GetTick();
 80019b8:	f7ff f990 	bl	8000cdc <HAL_GetTick>
 80019bc:	6138      	str	r0, [r7, #16]

        /* Wait till HSE is ready */
        while (__HAL_RCC_GET_FLAG(RCC_FLAG_HSERDY) == RESET)
 80019be:	e008      	b.n	80019d2 <HAL_RCC_OscConfig+0xd2>
        {
          if ((HAL_GetTick() - tickstart) > HSE_TIMEOUT_VALUE)
 80019c0:	f7ff f98c 	bl	8000cdc <HAL_GetTick>
 80019c4:	4602      	mov	r2, r0
 80019c6:	693b      	ldr	r3, [r7, #16]
 80019c8:	1ad3      	subs	r3, r2, r3
 80019ca:	2b64      	cmp	r3, #100	@ 0x64
 80019cc:	d901      	bls.n	80019d2 <HAL_RCC_OscConfig+0xd2>
          {
            return HAL_TIMEOUT;
 80019ce:	2303      	movs	r3, #3
 80019d0:	e207      	b.n	8001de2 <HAL_RCC_OscConfig+0x4e2>
        while (__HAL_RCC_GET_FLAG(RCC_FLAG_HSERDY) == RESET)
 80019d2:	4b5b      	ldr	r3, [pc, #364]	@ (8001b40 <HAL_RCC_OscConfig+0x240>)
 80019d4:	681b      	ldr	r3, [r3, #0]
 80019d6:	f403 3300 	and.w	r3, r3, #131072	@ 0x20000
 80019da:	2b00      	cmp	r3, #0
 80019dc:	d0f0      	beq.n	80019c0 <HAL_RCC_OscConfig+0xc0>
 80019de:	e014      	b.n	8001a0a <HAL_RCC_OscConfig+0x10a>
        }
      }
      else
      {
        /* Get Start Tick */
        tickstart = HAL_GetTick();
 80019e0:	f7ff f97c 	bl	8000cdc <HAL_GetTick>
 80019e4:	6138      	str	r0, [r7, #16]

        /* Wait till HSE is bypassed or disabled */
        while (__HAL_RCC_GET_FLAG(RCC_FLAG_HSERDY) != RESET)
 80019e6:	e008      	b.n	80019fa <HAL_RCC_OscConfig+0xfa>
        {
          if ((HAL_GetTick() - tickstart) > HSE_TIMEOUT_VALUE)
 80019e8:	f7ff f978 	bl	8000cdc <HAL_GetTick>
 80019ec:	4602      	mov	r2, r0
 80019ee:	693b      	ldr	r3, [r7, #16]
 80019f0:	1ad3      	subs	r3, r2, r3
 80019f2:	2b64      	cmp	r3, #100	@ 0x64
 80019f4:	d901      	bls.n	80019fa <HAL_RCC_OscConfig+0xfa>
          {
            return HAL_TIMEOUT;
 80019f6:	2303      	movs	r3, #3
 80019f8:	e1f3      	b.n	8001de2 <HAL_RCC_OscConfig+0x4e2>
        while (__HAL_RCC_GET_FLAG(RCC_FLAG_HSERDY) != RESET)
 80019fa:	4b51      	ldr	r3, [pc, #324]	@ (8001b40 <HAL_RCC_OscConfig+0x240>)
 80019fc:	681b      	ldr	r3, [r3, #0]
 80019fe:	f403 3300 	and.w	r3, r3, #131072	@ 0x20000
 8001a02:	2b00      	cmp	r3, #0
 8001a04:	d1f0      	bne.n	80019e8 <HAL_RCC_OscConfig+0xe8>
 8001a06:	e000      	b.n	8001a0a <HAL_RCC_OscConfig+0x10a>
      if ((__HAL_RCC_GET_FLAG(RCC_FLAG_HSERDY) != RESET) && (RCC_OscInitStruct->HSEState == RCC_HSE_OFF))
 8001a08:	bf00      	nop
        }
      }
    }
  }
  /*----------------------------- HSI Configuration --------------------------*/
  if (((RCC_OscInitStruct->OscillatorType) & RCC_OSCILLATORTYPE_HSI) == RCC_OSCILLATORTYPE_HSI)
 8001a0a:	687b      	ldr	r3, [r7, #4]
 8001a0c:	681b      	ldr	r3, [r3, #0]
 8001a0e:	f003 0302 	and.w	r3, r3, #2
 8001a12:	2b00      	cmp	r3, #0
 8001a14:	d063      	beq.n	8001ade <HAL_RCC_OscConfig+0x1de>
    /* Check the parameters */
    assert_param(IS_RCC_HSI(RCC_OscInitStruct->HSIState));
    assert_param(IS_RCC_CALIBRATION_VALUE(RCC_OscInitStruct->HSICalibrationValue));

    /* Check if HSI is used as system clock or as PLL source when PLL is selected as system clock */
    if ((__HAL_RCC_GET_SYSCLK_SOURCE() == RCC_CFGR_SWS_HSI) || \
 8001a16:	4b4a      	ldr	r3, [pc, #296]	@ (8001b40 <HAL_RCC_OscConfig+0x240>)
 8001a18:	689b      	ldr	r3, [r3, #8]
 8001a1a:	f003 030c 	and.w	r3, r3, #12
 8001a1e:	2b00      	cmp	r3, #0
 8001a20:	d00b      	beq.n	8001a3a <HAL_RCC_OscConfig+0x13a>
        ((__HAL_RCC_GET_SYSCLK_SOURCE() == RCC_CFGR_SWS_PLL) && ((RCC->PLLCFGR & RCC_PLLCFGR_PLLSRC) == RCC_PLLCFGR_PLLSRC_HSI)))
 8001a22:	4b47      	ldr	r3, [pc, #284]	@ (8001b40 <HAL_RCC_OscConfig+0x240>)
 8001a24:	689b      	ldr	r3, [r3, #8]
 8001a26:	f003 030c 	and.w	r3, r3, #12
    if ((__HAL_RCC_GET_SYSCLK_SOURCE() == RCC_CFGR_SWS_HSI) || \
 8001a2a:	2b08      	cmp	r3, #8
 8001a2c:	d11c      	bne.n	8001a68 <HAL_RCC_OscConfig+0x168>
        ((__HAL_RCC_GET_SYSCLK_SOURCE() == RCC_CFGR_SWS_PLL) && ((RCC->PLLCFGR & RCC_PLLCFGR_PLLSRC) == RCC_PLLCFGR_PLLSRC_HSI)))
 8001a2e:	4b44      	ldr	r3, [pc, #272]	@ (8001b40 <HAL_RCC_OscConfig+0x240>)
 8001a30:	685b      	ldr	r3, [r3, #4]
 8001a32:	f403 0380 	and.w	r3, r3, #4194304	@ 0x400000
 8001a36:	2b00      	cmp	r3, #0
 8001a38:	d116      	bne.n	8001a68 <HAL_RCC_OscConfig+0x168>
    {
      /* When HSI is used as system clock it will not disabled */
      if ((__HAL_RCC_GET_FLAG(RCC_FLAG_HSIRDY) != RESET) && (RCC_OscInitStruct->HSIState != RCC_HSI_ON))
 8001a3a:	4b41      	ldr	r3, [pc, #260]	@ (8001b40 <HAL_RCC_OscConfig+0x240>)
 8001a3c:	681b      	ldr	r3, [r3, #0]
 8001a3e:	f003 0302 	and.w	r3, r3, #2
 8001a42:	2b00      	cmp	r3, #0
 8001a44:	d005      	beq.n	8001a52 <HAL_RCC_OscConfig+0x152>
 8001a46:	687b      	ldr	r3, [r7, #4]
 8001a48:	68db      	ldr	r3, [r3, #12]
 8001a4a:	2b01      	cmp	r3, #1
 8001a4c:	d001      	beq.n	8001a52 <HAL_RCC_OscConfig+0x152>
      {
        return HAL_ERROR;
 8001a4e:	2301      	movs	r3, #1
 8001a50:	e1c7      	b.n	8001de2 <HAL_RCC_OscConfig+0x4e2>
      }
      /* Otherwise, just the calibration is allowed */
      else
      {
        /* Adjusts the Internal High Speed oscillator (HSI) calibration value.*/
        __HAL_RCC_HSI_CALIBRATIONVALUE_ADJUST(RCC_OscInitStruct->HSICalibrationValue);
 8001a52:	4b3b      	ldr	r3, [pc, #236]	@ (8001b40 <HAL_RCC_OscConfig+0x240>)
 8001a54:	681b      	ldr	r3, [r3, #0]
 8001a56:	f023 02f8 	bic.w	r2, r3, #248	@ 0xf8
 8001a5a:	687b      	ldr	r3, [r7, #4]
 8001a5c:	691b      	ldr	r3, [r3, #16]
 8001a5e:	00db      	lsls	r3, r3, #3
 8001a60:	4937      	ldr	r1, [pc, #220]	@ (8001b40 <HAL_RCC_OscConfig+0x240>)
 8001a62:	4313      	orrs	r3, r2
 8001a64:	600b      	str	r3, [r1, #0]
      if ((__HAL_RCC_GET_FLAG(RCC_FLAG_HSIRDY) != RESET) && (RCC_OscInitStruct->HSIState != RCC_HSI_ON))
 8001a66:	e03a      	b.n	8001ade <HAL_RCC_OscConfig+0x1de>
      }
    }
    else
    {
      /* Check the HSI State */
      if ((RCC_OscInitStruct->HSIState) != RCC_HSI_OFF)
 8001a68:	687b      	ldr	r3, [r7, #4]
 8001a6a:	68db      	ldr	r3, [r3, #12]
 8001a6c:	2b00      	cmp	r3, #0
 8001a6e:	d020      	beq.n	8001ab2 <HAL_RCC_OscConfig+0x1b2>
      {
        /* Enable the Internal High Speed oscillator (HSI). */
        __HAL_RCC_HSI_ENABLE();
 8001a70:	4b34      	ldr	r3, [pc, #208]	@ (8001b44 <HAL_RCC_OscConfig+0x244>)
 8001a72:	2201      	movs	r2, #1
 8001a74:	601a      	str	r2, [r3, #0]

        /* Get Start Tick*/
        tickstart = HAL_GetTick();
 8001a76:	f7ff f931 	bl	8000cdc <HAL_GetTick>
 8001a7a:	6138      	str	r0, [r7, #16]

        /* Wait till HSI is ready */
        while (__HAL_RCC_GET_FLAG(RCC_FLAG_HSIRDY) == RESET)
 8001a7c:	e008      	b.n	8001a90 <HAL_RCC_OscConfig+0x190>
        {
          if ((HAL_GetTick() - tickstart) > HSI_TIMEOUT_VALUE)
 8001a7e:	f7ff f92d 	bl	8000cdc <HAL_GetTick>
 8001a82:	4602      	mov	r2, r0
 8001a84:	693b      	ldr	r3, [r7, #16]
 8001a86:	1ad3      	subs	r3, r2, r3
 8001a88:	2b02      	cmp	r3, #2
 8001a8a:	d901      	bls.n	8001a90 <HAL_RCC_OscConfig+0x190>
          {
            return HAL_TIMEOUT;
 8001a8c:	2303      	movs	r3, #3
 8001a8e:	e1a8      	b.n	8001de2 <HAL_RCC_OscConfig+0x4e2>
        while (__HAL_RCC_GET_FLAG(RCC_FLAG_HSIRDY) == RESET)
 8001a90:	4b2b      	ldr	r3, [pc, #172]	@ (8001b40 <HAL_RCC_OscConfig+0x240>)
 8001a92:	681b      	ldr	r3, [r3, #0]
 8001a94:	f003 0302 	and.w	r3, r3, #2
 8001a98:	2b00      	cmp	r3, #0
 8001a9a:	d0f0      	beq.n	8001a7e <HAL_RCC_OscConfig+0x17e>
          }
        }

        /* Adjusts the Internal High Speed oscillator (HSI) calibration value. */
        __HAL_RCC_HSI_CALIBRATIONVALUE_ADJUST(RCC_OscInitStruct->HSICalibrationValue);
 8001a9c:	4b28      	ldr	r3, [pc, #160]	@ (8001b40 <HAL_RCC_OscConfig+0x240>)
 8001a9e:	681b      	ldr	r3, [r3, #0]
 8001aa0:	f023 02f8 	bic.w	r2, r3, #248	@ 0xf8
 8001aa4:	687b      	ldr	r3, [r7, #4]
 8001aa6:	691b      	ldr	r3, [r3, #16]
 8001aa8:	00db      	lsls	r3, r3, #3
 8001aaa:	4925      	ldr	r1, [pc, #148]	@ (8001b40 <HAL_RCC_OscConfig+0x240>)
 8001aac:	4313      	orrs	r3, r2
 8001aae:	600b      	str	r3, [r1, #0]
 8001ab0:	e015      	b.n	8001ade <HAL_RCC_OscConfig+0x1de>
      }
      else
      {
        /* Disable the Internal High Speed oscillator (HSI). */
        __HAL_RCC_HSI_DISABLE();
 8001ab2:	4b24      	ldr	r3, [pc, #144]	@ (8001b44 <HAL_RCC_OscConfig+0x244>)
 8001ab4:	2200      	movs	r2, #0
 8001ab6:	601a      	str	r2, [r3, #0]

        /* Get Start Tick*/
        tickstart = HAL_GetTick();
 8001ab8:	f7ff f910 	bl	8000cdc <HAL_GetTick>
 8001abc:	6138      	str	r0, [r7, #16]

        /* Wait till HSI is ready */
        while (__HAL_RCC_GET_FLAG(RCC_FLAG_HSIRDY) != RESET)
 8001abe:	e008      	b.n	8001ad2 <HAL_RCC_OscConfig+0x1d2>
        {
          if ((HAL_GetTick() - tickstart) > HSI_TIMEOUT_VALUE)
 8001ac0:	f7ff f90c 	bl	8000cdc <HAL_GetTick>
 8001ac4:	4602      	mov	r2, r0
 8001ac6:	693b      	ldr	r3, [r7, #16]
 8001ac8:	1ad3      	subs	r3, r2, r3
 8001aca:	2b02      	cmp	r3, #2
 8001acc:	d901      	bls.n	8001ad2 <HAL_RCC_OscConfig+0x1d2>
          {
            return HAL_TIMEOUT;
 8001ace:	2303      	movs	r3, #3
 8001ad0:	e187      	b.n	8001de2 <HAL_RCC_OscConfig+0x4e2>
        while (__HAL_RCC_GET_FLAG(RCC_FLAG_HSIRDY) != RESET)
 8001ad2:	4b1b      	ldr	r3, [pc, #108]	@ (8001b40 <HAL_RCC_OscConfig+0x240>)
 8001ad4:	681b      	ldr	r3, [r3, #0]
 8001ad6:	f003 0302 	and.w	r3, r3, #2
 8001ada:	2b00      	cmp	r3, #0
 8001adc:	d1f0      	bne.n	8001ac0 <HAL_RCC_OscConfig+0x1c0>
        }
      }
    }
  }
  /*------------------------------ LSI Configuration -------------------------*/
  if (((RCC_OscInitStruct->OscillatorType) & RCC_OSCILLATORTYPE_LSI) == RCC_OSCILLATORTYPE_LSI)
 8001ade:	687b      	ldr	r3, [r7, #4]
 8001ae0:	681b      	ldr	r3, [r3, #0]
 8001ae2:	f003 0308 	and.w	r3, r3, #8
 8001ae6:	2b00      	cmp	r3, #0
 8001ae8:	d036      	beq.n	8001b58 <HAL_RCC_OscConfig+0x258>
  {
    /* Check the parameters */
    assert_param(IS_RCC_LSI(RCC_OscInitStruct->LSIState));

    /* Check the LSI State */
    if ((RCC_OscInitStruct->LSIState) != RCC_LSI_OFF)
 8001aea:	687b      	ldr	r3, [r7, #4]
 8001aec:	695b      	ldr	r3, [r3, #20]
 8001aee:	2b00      	cmp	r3, #0
 8001af0:	d016      	beq.n	8001b20 <HAL_RCC_OscConfig+0x220>
    {
      /* Enable the Internal Low Speed oscillator (LSI). */
      __HAL_RCC_LSI_ENABLE();
 8001af2:	4b15      	ldr	r3, [pc, #84]	@ (8001b48 <HAL_RCC_OscConfig+0x248>)
 8001af4:	2201      	movs	r2, #1
 8001af6:	601a      	str	r2, [r3, #0]

      /* Get Start Tick*/
      tickstart = HAL_GetTick();
 8001af8:	f7ff f8f0 	bl	8000cdc <HAL_GetTick>
 8001afc:	6138      	str	r0, [r7, #16]

      /* Wait till LSI is ready */
      while (__HAL_RCC_GET_FLAG(RCC_FLAG_LSIRDY) == RESET)
 8001afe:	e008      	b.n	8001b12 <HAL_RCC_OscConfig+0x212>
      {
        if ((HAL_GetTick() - tickstart) > LSI_TIMEOUT_VALUE)
 8001b00:	f7ff f8ec 	bl	8000cdc <HAL_GetTick>
 8001b04:	4602      	mov	r2, r0
 8001b06:	693b      	ldr	r3, [r7, #16]
 8001b08:	1ad3      	subs	r3, r2, r3
 8001b0a:	2b02      	cmp	r3, #2
 8001b0c:	d901      	bls.n	8001b12 <HAL_RCC_OscConfig+0x212>
        {
          return HAL_TIMEOUT;
 8001b0e:	2303      	movs	r3, #3
 8001b10:	e167      	b.n	8001de2 <HAL_RCC_OscConfig+0x4e2>
      while (__HAL_RCC_GET_FLAG(RCC_FLAG_LSIRDY) == RESET)
 8001b12:	4b0b      	ldr	r3, [pc, #44]	@ (8001b40 <HAL_RCC_OscConfig+0x240>)
 8001b14:	6f5b      	ldr	r3, [r3, #116]	@ 0x74
 8001b16:	f003 0302 	and.w	r3, r3, #2
 8001b1a:	2b00      	cmp	r3, #0
 8001b1c:	d0f0      	beq.n	8001b00 <HAL_RCC_OscConfig+0x200>
 8001b1e:	e01b      	b.n	8001b58 <HAL_RCC_OscConfig+0x258>
      }
    }
    else
    {
      /* Disable the Internal Low Speed oscillator (LSI). */
      __HAL_RCC_LSI_DISABLE();
 8001b20:	4b09      	ldr	r3, [pc, #36]	@ (8001b48 <HAL_RCC_OscConfig+0x248>)
 8001b22:	2200      	movs	r2, #0
 8001b24:	601a      	str	r2, [r3, #0]

      /* Get Start Tick */
      tickstart = HAL_GetTick();
 8001b26:	f7ff f8d9 	bl	8000cdc <HAL_GetTick>
 8001b2a:	6138      	str	r0, [r7, #16]

      /* Wait till LSI is ready */
      while (__HAL_RCC_GET_FLAG(RCC_FLAG_LSIRDY) != RESET)
 8001b2c:	e00e      	b.n	8001b4c <HAL_RCC_OscConfig+0x24c>
      {
        if ((HAL_GetTick() - tickstart) > LSI_TIMEOUT_VALUE)
 8001b2e:	f7ff f8d5 	bl	8000cdc <HAL_GetTick>
 8001b32:	4602      	mov	r2, r0
 8001b34:	693b      	ldr	r3, [r7, #16]
 8001b36:	1ad3      	subs	r3, r2, r3
 8001b38:	2b02      	cmp	r3, #2
 8001b3a:	d907      	bls.n	8001b4c <HAL_RCC_OscConfig+0x24c>
        {
          return HAL_TIMEOUT;
 8001b3c:	2303      	movs	r3, #3
 8001b3e:	e150      	b.n	8001de2 <HAL_RCC_OscConfig+0x4e2>
 8001b40:	40023800 	.word	0x40023800
 8001b44:	42470000 	.word	0x42470000
 8001b48:	42470e80 	.word	0x42470e80
      while (__HAL_RCC_GET_FLAG(RCC_FLAG_LSIRDY) != RESET)
 8001b4c:	4b88      	ldr	r3, [pc, #544]	@ (8001d70 <HAL_RCC_OscConfig+0x470>)
 8001b4e:	6f5b      	ldr	r3, [r3, #116]	@ 0x74
 8001b50:	f003 0302 	and.w	r3, r3, #2
 8001b54:	2b00      	cmp	r3, #0
 8001b56:	d1ea      	bne.n	8001b2e <HAL_RCC_OscConfig+0x22e>
        }
      }
    }
  }
  /*------------------------------ LSE Configuration -------------------------*/
  if (((RCC_OscInitStruct->OscillatorType) & RCC_OSCILLATORTYPE_LSE) == RCC_OSCILLATORTYPE_LSE)
 8001b58:	687b      	ldr	r3, [r7, #4]
 8001b5a:	681b      	ldr	r3, [r3, #0]
 8001b5c:	f003 0304 	and.w	r3, r3, #4
 8001b60:	2b00      	cmp	r3, #0
 8001b62:	f000 8097 	beq.w	8001c94 <HAL_RCC_OscConfig+0x394>
  {
    FlagStatus       pwrclkchanged = RESET;
 8001b66:	2300      	movs	r3, #0
 8001b68:	75fb      	strb	r3, [r7, #23]
    /* Check the parameters */
    assert_param(IS_RCC_LSE(RCC_OscInitStruct->LSEState));

    /* Update LSE configuration in Backup Domain control register    */
    /* Requires to enable write access to Backup Domain of necessary */
    if (__HAL_RCC_PWR_IS_CLK_DISABLED())
 8001b6a:	4b81      	ldr	r3, [pc, #516]	@ (8001d70 <HAL_RCC_OscConfig+0x470>)
 8001b6c:	6c1b      	ldr	r3, [r3, #64]	@ 0x40
 8001b6e:	f003 5380 	and.w	r3, r3, #268435456	@ 0x10000000
 8001b72:	2b00      	cmp	r3, #0
 8001b74:	d10f      	bne.n	8001b96 <HAL_RCC_OscConfig+0x296>
    {
      __HAL_RCC_PWR_CLK_ENABLE();
 8001b76:	2300      	movs	r3, #0
 8001b78:	60bb      	str	r3, [r7, #8]
 8001b7a:	4b7d      	ldr	r3, [pc, #500]	@ (8001d70 <HAL_RCC_OscConfig+0x470>)
 8001b7c:	6c1b      	ldr	r3, [r3, #64]	@ 0x40
 8001b7e:	4a7c      	ldr	r2, [pc, #496]	@ (8001d70 <HAL_RCC_OscConfig+0x470>)
 8001b80:	f043 5380 	orr.w	r3, r3, #268435456	@ 0x10000000
 8001b84:	6413      	str	r3, [r2, #64]	@ 0x40
 8001b86:	4b7a      	ldr	r3, [pc, #488]	@ (8001d70 <HAL_RCC_OscConfig+0x470>)
 8001b88:	6c1b      	ldr	r3, [r3, #64]	@ 0x40
 8001b8a:	f003 5380 	and.w	r3, r3, #268435456	@ 0x10000000
 8001b8e:	60bb      	str	r3, [r7, #8]
 8001b90:	68bb      	ldr	r3, [r7, #8]
      pwrclkchanged = SET;
 8001b92:	2301      	movs	r3, #1
 8001b94:	75fb      	strb	r3, [r7, #23]
    }

    if (HAL_IS_BIT_CLR(PWR->CR, PWR_CR_DBP))
 8001b96:	4b77      	ldr	r3, [pc, #476]	@ (8001d74 <HAL_RCC_OscConfig+0x474>)
 8001b98:	681b      	ldr	r3, [r3, #0]
 8001b9a:	f403 7380 	and.w	r3, r3, #256	@ 0x100
 8001b9e:	2b00      	cmp	r3, #0
 8001ba0:	d118      	bne.n	8001bd4 <HAL_RCC_OscConfig+0x2d4>
    {
      /* Enable write access to Backup domain */
      SET_BIT(PWR->CR, PWR_CR_DBP);
 8001ba2:	4b74      	ldr	r3, [pc, #464]	@ (8001d74 <HAL_RCC_OscConfig+0x474>)
 8001ba4:	681b      	ldr	r3, [r3, #0]
 8001ba6:	4a73      	ldr	r2, [pc, #460]	@ (8001d74 <HAL_RCC_OscConfig+0x474>)
 8001ba8:	f443 7380 	orr.w	r3, r3, #256	@ 0x100
 8001bac:	6013      	str	r3, [r2, #0]

      /* Wait for Backup domain Write protection disable */
      tickstart = HAL_GetTick();
 8001bae:	f7ff f895 	bl	8000cdc <HAL_GetTick>
 8001bb2:	6138      	str	r0, [r7, #16]

      while (HAL_IS_BIT_CLR(PWR->CR, PWR_CR_DBP))
 8001bb4:	e008      	b.n	8001bc8 <HAL_RCC_OscConfig+0x2c8>
      {
        if ((HAL_GetTick() - tickstart) > RCC_DBP_TIMEOUT_VALUE)
 8001bb6:	f7ff f891 	bl	8000cdc <HAL_GetTick>
 8001bba:	4602      	mov	r2, r0
 8001bbc:	693b      	ldr	r3, [r7, #16]
 8001bbe:	1ad3      	subs	r3, r2, r3
 8001bc0:	2b02      	cmp	r3, #2
 8001bc2:	d901      	bls.n	8001bc8 <HAL_RCC_OscConfig+0x2c8>
        {
          return HAL_TIMEOUT;
 8001bc4:	2303      	movs	r3, #3
 8001bc6:	e10c      	b.n	8001de2 <HAL_RCC_OscConfig+0x4e2>
      while (HAL_IS_BIT_CLR(PWR->CR, PWR_CR_DBP))
 8001bc8:	4b6a      	ldr	r3, [pc, #424]	@ (8001d74 <HAL_RCC_OscConfig+0x474>)
 8001bca:	681b      	ldr	r3, [r3, #0]
 8001bcc:	f403 7380 	and.w	r3, r3, #256	@ 0x100
 8001bd0:	2b00      	cmp	r3, #0
 8001bd2:	d0f0      	beq.n	8001bb6 <HAL_RCC_OscConfig+0x2b6>
        }
      }
    }

    /* Set the new LSE configuration -----------------------------------------*/
    __HAL_RCC_LSE_CONFIG(RCC_OscInitStruct->LSEState);
 8001bd4:	687b      	ldr	r3, [r7, #4]
 8001bd6:	689b      	ldr	r3, [r3, #8]
 8001bd8:	2b01      	cmp	r3, #1
 8001bda:	d106      	bne.n	8001bea <HAL_RCC_OscConfig+0x2ea>
 8001bdc:	4b64      	ldr	r3, [pc, #400]	@ (8001d70 <HAL_RCC_OscConfig+0x470>)
 8001bde:	6f1b      	ldr	r3, [r3, #112]	@ 0x70
 8001be0:	4a63      	ldr	r2, [pc, #396]	@ (8001d70 <HAL_RCC_OscConfig+0x470>)
 8001be2:	f043 0301 	orr.w	r3, r3, #1
 8001be6:	6713      	str	r3, [r2, #112]	@ 0x70
 8001be8:	e01c      	b.n	8001c24 <HAL_RCC_OscConfig+0x324>
 8001bea:	687b      	ldr	r3, [r7, #4]
 8001bec:	689b      	ldr	r3, [r3, #8]
 8001bee:	2b05      	cmp	r3, #5
 8001bf0:	d10c      	bne.n	8001c0c <HAL_RCC_OscConfig+0x30c>
 8001bf2:	4b5f      	ldr	r3, [pc, #380]	@ (8001d70 <HAL_RCC_OscConfig+0x470>)
 8001bf4:	6f1b      	ldr	r3, [r3, #112]	@ 0x70
 8001bf6:	4a5e      	ldr	r2, [pc, #376]	@ (8001d70 <HAL_RCC_OscConfig+0x470>)
 8001bf8:	f043 0304 	orr.w	r3, r3, #4
 8001bfc:	6713      	str	r3, [r2, #112]	@ 0x70
 8001bfe:	4b5c      	ldr	r3, [pc, #368]	@ (8001d70 <HAL_RCC_OscConfig+0x470>)
 8001c00:	6f1b      	ldr	r3, [r3, #112]	@ 0x70
 8001c02:	4a5b      	ldr	r2, [pc, #364]	@ (8001d70 <HAL_RCC_OscConfig+0x470>)
 8001c04:	f043 0301 	orr.w	r3, r3, #1
 8001c08:	6713      	str	r3, [r2, #112]	@ 0x70
 8001c0a:	e00b      	b.n	8001c24 <HAL_RCC_OscConfig+0x324>
 8001c0c:	4b58      	ldr	r3, [pc, #352]	@ (8001d70 <HAL_RCC_OscConfig+0x470>)
 8001c0e:	6f1b      	ldr	r3, [r3, #112]	@ 0x70
 8001c10:	4a57      	ldr	r2, [pc, #348]	@ (8001d70 <HAL_RCC_OscConfig+0x470>)
 8001c12:	f023 0301 	bic.w	r3, r3, #1
 8001c16:	6713      	str	r3, [r2, #112]	@ 0x70
 8001c18:	4b55      	ldr	r3, [pc, #340]	@ (8001d70 <HAL_RCC_OscConfig+0x470>)
 8001c1a:	6f1b      	ldr	r3, [r3, #112]	@ 0x70
 8001c1c:	4a54      	ldr	r2, [pc, #336]	@ (8001d70 <HAL_RCC_OscConfig+0x470>)
 8001c1e:	f023 0304 	bic.w	r3, r3, #4
 8001c22:	6713      	str	r3, [r2, #112]	@ 0x70
    /* Check the LSE State */
    if ((RCC_OscInitStruct->LSEState) != RCC_LSE_OFF)
 8001c24:	687b      	ldr	r3, [r7, #4]
 8001c26:	689b      	ldr	r3, [r3, #8]
 8001c28:	2b00      	cmp	r3, #0
 8001c2a:	d015      	beq.n	8001c58 <HAL_RCC_OscConfig+0x358>
    {
      /* Get Start Tick*/
      tickstart = HAL_GetTick();
 8001c2c:	f7ff f856 	bl	8000cdc <HAL_GetTick>
 8001c30:	6138      	str	r0, [r7, #16]

      /* Wait till LSE is ready */
      while (__HAL_RCC_GET_FLAG(RCC_FLAG_LSERDY) == RESET)
 8001c32:	e00a      	b.n	8001c4a <HAL_RCC_OscConfig+0x34a>
      {
        if ((HAL_GetTick() - tickstart) > RCC_LSE_TIMEOUT_VALUE)
 8001c34:	f7ff f852 	bl	8000cdc <HAL_GetTick>
 8001c38:	4602      	mov	r2, r0
 8001c3a:	693b      	ldr	r3, [r7, #16]
 8001c3c:	1ad3      	subs	r3, r2, r3
 8001c3e:	f241 3288 	movw	r2, #5000	@ 0x1388
 8001c42:	4293      	cmp	r3, r2
 8001c44:	d901      	bls.n	8001c4a <HAL_RCC_OscConfig+0x34a>
        {
          return HAL_TIMEOUT;
 8001c46:	2303      	movs	r3, #3
 8001c48:	e0cb      	b.n	8001de2 <HAL_RCC_OscConfig+0x4e2>
      while (__HAL_RCC_GET_FLAG(RCC_FLAG_LSERDY) == RESET)
 8001c4a:	4b49      	ldr	r3, [pc, #292]	@ (8001d70 <HAL_RCC_OscConfig+0x470>)
 8001c4c:	6f1b      	ldr	r3, [r3, #112]	@ 0x70
 8001c4e:	f003 0302 	and.w	r3, r3, #2
 8001c52:	2b00      	cmp	r3, #0
 8001c54:	d0ee      	beq.n	8001c34 <HAL_RCC_OscConfig+0x334>
 8001c56:	e014      	b.n	8001c82 <HAL_RCC_OscConfig+0x382>
      }
    }
    else
    {
      /* Get Start Tick */
      tickstart = HAL_GetTick();
 8001c58:	f7ff f840 	bl	8000cdc <HAL_GetTick>
 8001c5c:	6138      	str	r0, [r7, #16]

      /* Wait till LSE is ready */
      while (__HAL_RCC_GET_FLAG(RCC_FLAG_LSERDY) != RESET)
 8001c5e:	e00a      	b.n	8001c76 <HAL_RCC_OscConfig+0x376>
      {
        if ((HAL_GetTick() - tickstart) > RCC_LSE_TIMEOUT_VALUE)
 8001c60:	f7ff f83c 	bl	8000cdc <HAL_GetTick>
 8001c64:	4602      	mov	r2, r0
 8001c66:	693b      	ldr	r3, [r7, #16]
 8001c68:	1ad3      	subs	r3, r2, r3
 8001c6a:	f241 3288 	movw	r2, #5000	@ 0x1388
 8001c6e:	4293      	cmp	r3, r2
 8001c70:	d901      	bls.n	8001c76 <HAL_RCC_OscConfig+0x376>
        {
          return HAL_TIMEOUT;
 8001c72:	2303      	movs	r3, #3
 8001c74:	e0b5      	b.n	8001de2 <HAL_RCC_OscConfig+0x4e2>
      while (__HAL_RCC_GET_FLAG(RCC_FLAG_LSERDY) != RESET)
 8001c76:	4b3e      	ldr	r3, [pc, #248]	@ (8001d70 <HAL_RCC_OscConfig+0x470>)
 8001c78:	6f1b      	ldr	r3, [r3, #112]	@ 0x70
 8001c7a:	f003 0302 	and.w	r3, r3, #2
 8001c7e:	2b00      	cmp	r3, #0
 8001c80:	d1ee      	bne.n	8001c60 <HAL_RCC_OscConfig+0x360>
        }
      }
    }

    /* Restore clock configuration if changed */
    if (pwrclkchanged == SET)
 8001c82:	7dfb      	ldrb	r3, [r7, #23]
 8001c84:	2b01      	cmp	r3, #1
 8001c86:	d105      	bne.n	8001c94 <HAL_RCC_OscConfig+0x394>
    {
      __HAL_RCC_PWR_CLK_DISABLE();
 8001c88:	4b39      	ldr	r3, [pc, #228]	@ (8001d70 <HAL_RCC_OscConfig+0x470>)
 8001c8a:	6c1b      	ldr	r3, [r3, #64]	@ 0x40
 8001c8c:	4a38      	ldr	r2, [pc, #224]	@ (8001d70 <HAL_RCC_OscConfig+0x470>)
 8001c8e:	f023 5380 	bic.w	r3, r3, #268435456	@ 0x10000000
 8001c92:	6413      	str	r3, [r2, #64]	@ 0x40
    }
  }
  /*-------------------------------- PLL Configuration -----------------------*/
  /* Check the parameters */
  assert_param(IS_RCC_PLL(RCC_OscInitStruct->PLL.PLLState));
  if ((RCC_OscInitStruct->PLL.PLLState) != RCC_PLL_NONE)
 8001c94:	687b      	ldr	r3, [r7, #4]
 8001c96:	699b      	ldr	r3, [r3, #24]
 8001c98:	2b00      	cmp	r3, #0
 8001c9a:	f000 80a1 	beq.w	8001de0 <HAL_RCC_OscConfig+0x4e0>
  {
    /* Check if the PLL is used as system clock or not */
    if (__HAL_RCC_GET_SYSCLK_SOURCE() != RCC_CFGR_SWS_PLL)
 8001c9e:	4b34      	ldr	r3, [pc, #208]	@ (8001d70 <HAL_RCC_OscConfig+0x470>)
 8001ca0:	689b      	ldr	r3, [r3, #8]
 8001ca2:	f003 030c 	and.w	r3, r3, #12
 8001ca6:	2b08      	cmp	r3, #8
 8001ca8:	d05c      	beq.n	8001d64 <HAL_RCC_OscConfig+0x464>
    {
      if ((RCC_OscInitStruct->PLL.PLLState) == RCC_PLL_ON)
 8001caa:	687b      	ldr	r3, [r7, #4]
 8001cac:	699b      	ldr	r3, [r3, #24]
 8001cae:	2b02      	cmp	r3, #2
 8001cb0:	d141      	bne.n	8001d36 <HAL_RCC_OscConfig+0x436>
        assert_param(IS_RCC_PLLN_VALUE(RCC_OscInitStruct->PLL.PLLN));
        assert_param(IS_RCC_PLLP_VALUE(RCC_OscInitStruct->PLL.PLLP));
        assert_param(IS_RCC_PLLQ_VALUE(RCC_OscInitStruct->PLL.PLLQ));

        /* Disable the main PLL. */
        __HAL_RCC_PLL_DISABLE();
 8001cb2:	4b31      	ldr	r3, [pc, #196]	@ (8001d78 <HAL_RCC_OscConfig+0x478>)
 8001cb4:	2200      	movs	r2, #0
 8001cb6:	601a      	str	r2, [r3, #0]

        /* Get Start Tick */
        tickstart = HAL_GetTick();
 8001cb8:	f7ff f810 	bl	8000cdc <HAL_GetTick>
 8001cbc:	6138      	str	r0, [r7, #16]

        /* Wait till PLL is disabled */
        while (__HAL_RCC_GET_FLAG(RCC_FLAG_PLLRDY) != RESET)
 8001cbe:	e008      	b.n	8001cd2 <HAL_RCC_OscConfig+0x3d2>
        {
          if ((HAL_GetTick() - tickstart) > PLL_TIMEOUT_VALUE)
 8001cc0:	f7ff f80c 	bl	8000cdc <HAL_GetTick>
 8001cc4:	4602      	mov	r2, r0
 8001cc6:	693b      	ldr	r3, [r7, #16]
 8001cc8:	1ad3      	subs	r3, r2, r3
 8001cca:	2b02      	cmp	r3, #2
 8001ccc:	d901      	bls.n	8001cd2 <HAL_RCC_OscConfig+0x3d2>
          {
            return HAL_TIMEOUT;
 8001cce:	2303      	movs	r3, #3
 8001cd0:	e087      	b.n	8001de2 <HAL_RCC_OscConfig+0x4e2>
        while (__HAL_RCC_GET_FLAG(RCC_FLAG_PLLRDY) != RESET)
 8001cd2:	4b27      	ldr	r3, [pc, #156]	@ (8001d70 <HAL_RCC_OscConfig+0x470>)
 8001cd4:	681b      	ldr	r3, [r3, #0]
 8001cd6:	f003 7300 	and.w	r3, r3, #33554432	@ 0x2000000
 8001cda:	2b00      	cmp	r3, #0
 8001cdc:	d1f0      	bne.n	8001cc0 <HAL_RCC_OscConfig+0x3c0>
          }
        }

        /* Configure the main PLL clock source, multiplication and division factors. */
        WRITE_REG(RCC->PLLCFGR, (RCC_OscInitStruct->PLL.PLLSource                                            | \
 8001cde:	687b      	ldr	r3, [r7, #4]
 8001ce0:	69da      	ldr	r2, [r3, #28]
 8001ce2:	687b      	ldr	r3, [r7, #4]
 8001ce4:	6a1b      	ldr	r3, [r3, #32]
 8001ce6:	431a      	orrs	r2, r3
 8001ce8:	687b      	ldr	r3, [r7, #4]
 8001cea:	6a5b      	ldr	r3, [r3, #36]	@ 0x24
 8001cec:	019b      	lsls	r3, r3, #6
 8001cee:	431a      	orrs	r2, r3
 8001cf0:	687b      	ldr	r3, [r7, #4]
 8001cf2:	6a9b      	ldr	r3, [r3, #40]	@ 0x28
 8001cf4:	085b      	lsrs	r3, r3, #1
 8001cf6:	3b01      	subs	r3, #1
 8001cf8:	041b      	lsls	r3, r3, #16
 8001cfa:	431a      	orrs	r2, r3
 8001cfc:	687b      	ldr	r3, [r7, #4]
 8001cfe:	6adb      	ldr	r3, [r3, #44]	@ 0x2c
 8001d00:	061b      	lsls	r3, r3, #24
 8001d02:	491b      	ldr	r1, [pc, #108]	@ (8001d70 <HAL_RCC_OscConfig+0x470>)
 8001d04:	4313      	orrs	r3, r2
 8001d06:	604b      	str	r3, [r1, #4]
                                 RCC_OscInitStruct->PLL.PLLM                                                 | \
                                 (RCC_OscInitStruct->PLL.PLLN << RCC_PLLCFGR_PLLN_Pos)             | \
                                 (((RCC_OscInitStruct->PLL.PLLP >> 1U) - 1U) << RCC_PLLCFGR_PLLP_Pos) | \
                                 (RCC_OscInitStruct->PLL.PLLQ << RCC_PLLCFGR_PLLQ_Pos)));
        /* Enable the main PLL. */
        __HAL_RCC_PLL_ENABLE();
 8001d08:	4b1b      	ldr	r3, [pc, #108]	@ (8001d78 <HAL_RCC_OscConfig+0x478>)
 8001d0a:	2201      	movs	r2, #1
 8001d0c:	601a      	str	r2, [r3, #0]

        /* Get Start Tick */
        tickstart = HAL_GetTick();
 8001d0e:	f7fe ffe5 	bl	8000cdc <HAL_GetTick>
 8001d12:	6138      	str	r0, [r7, #16]

        /* Wait till PLL is ready */
        while (__HAL_RCC_GET_FLAG(RCC_FLAG_PLLRDY) == RESET)
 8001d14:	e008      	b.n	8001d28 <HAL_RCC_OscConfig+0x428>
        {
          if ((HAL_GetTick() - tickstart) > PLL_TIMEOUT_VALUE)
 8001d16:	f7fe ffe1 	bl	8000cdc <HAL_GetTick>
 8001d1a:	4602      	mov	r2, r0
 8001d1c:	693b      	ldr	r3, [r7, #16]
 8001d1e:	1ad3      	subs	r3, r2, r3
 8001d20:	2b02      	cmp	r3, #2
 8001d22:	d901      	bls.n	8001d28 <HAL_RCC_OscConfig+0x428>
          {
            return HAL_TIMEOUT;
 8001d24:	2303      	movs	r3, #3
 8001d26:	e05c      	b.n	8001de2 <HAL_RCC_OscConfig+0x4e2>
        while (__HAL_RCC_GET_FLAG(RCC_FLAG_PLLRDY) == RESET)
 8001d28:	4b11      	ldr	r3, [pc, #68]	@ (8001d70 <HAL_RCC_OscConfig+0x470>)
 8001d2a:	681b      	ldr	r3, [r3, #0]
 8001d2c:	f003 7300 	and.w	r3, r3, #33554432	@ 0x2000000
 8001d30:	2b00      	cmp	r3, #0
 8001d32:	d0f0      	beq.n	8001d16 <HAL_RCC_OscConfig+0x416>
 8001d34:	e054      	b.n	8001de0 <HAL_RCC_OscConfig+0x4e0>
        }
      }
      else
      {
        /* Disable the main PLL. */
        __HAL_RCC_PLL_DISABLE();
 8001d36:	4b10      	ldr	r3, [pc, #64]	@ (8001d78 <HAL_RCC_OscConfig+0x478>)
 8001d38:	2200      	movs	r2, #0
 8001d3a:	601a      	str	r2, [r3, #0]

        /* Get Start Tick */
        tickstart = HAL_GetTick();
 8001d3c:	f7fe ffce 	bl	8000cdc <HAL_GetTick>
 8001d40:	6138      	str	r0, [r7, #16]

        /* Wait till PLL is disabled */
        while (__HAL_RCC_GET_FLAG(RCC_FLAG_PLLRDY) != RESET)
 8001d42:	e008      	b.n	8001d56 <HAL_RCC_OscConfig+0x456>
        {
          if ((HAL_GetTick() - tickstart) > PLL_TIMEOUT_VALUE)
 8001d44:	f7fe ffca 	bl	8000cdc <HAL_GetTick>
 8001d48:	4602      	mov	r2, r0
 8001d4a:	693b      	ldr	r3, [r7, #16]
 8001d4c:	1ad3      	subs	r3, r2, r3
 8001d4e:	2b02      	cmp	r3, #2
 8001d50:	d901      	bls.n	8001d56 <HAL_RCC_OscConfig+0x456>
          {
            return HAL_TIMEOUT;
 8001d52:	2303      	movs	r3, #3
 8001d54:	e045      	b.n	8001de2 <HAL_RCC_OscConfig+0x4e2>
        while (__HAL_RCC_GET_FLAG(RCC_FLAG_PLLRDY) != RESET)
 8001d56:	4b06      	ldr	r3, [pc, #24]	@ (8001d70 <HAL_RCC_OscConfig+0x470>)
 8001d58:	681b      	ldr	r3, [r3, #0]
 8001d5a:	f003 7300 	and.w	r3, r3, #33554432	@ 0x2000000
 8001d5e:	2b00      	cmp	r3, #0
 8001d60:	d1f0      	bne.n	8001d44 <HAL_RCC_OscConfig+0x444>
 8001d62:	e03d      	b.n	8001de0 <HAL_RCC_OscConfig+0x4e0>
      }
    }
    else
    {
      /* Check if there is a request to disable the PLL used as System clock source */
      if ((RCC_OscInitStruct->PLL.PLLState) == RCC_PLL_OFF)
 8001d64:	687b      	ldr	r3, [r7, #4]
 8001d66:	699b      	ldr	r3, [r3, #24]
 8001d68:	2b01      	cmp	r3, #1
 8001d6a:	d107      	bne.n	8001d7c <HAL_RCC_OscConfig+0x47c>
      {
        return HAL_ERROR;
 8001d6c:	2301      	movs	r3, #1
 8001d6e:	e038      	b.n	8001de2 <HAL_RCC_OscConfig+0x4e2>
 8001d70:	40023800 	.word	0x40023800
 8001d74:	40007000 	.word	0x40007000
 8001d78:	42470060 	.word	0x42470060
      }
      else
      {
        /* Do not return HAL_ERROR if request repeats the current configuration */
        pll_config = RCC->PLLCFGR;
 8001d7c:	4b1b      	ldr	r3, [pc, #108]	@ (8001dec <HAL_RCC_OscConfig+0x4ec>)
 8001d7e:	685b      	ldr	r3, [r3, #4]
 8001d80:	60fb      	str	r3, [r7, #12]
            (READ_BIT(pll_config, RCC_PLLCFGR_PLLN) != (RCC_OscInitStruct->PLL.PLLN) << RCC_PLLCFGR_PLLN_Pos) ||
            (READ_BIT(pll_config, RCC_PLLCFGR_PLLP) != (((RCC_OscInitStruct->PLL.PLLP >> 1U) - 1U)) << RCC_PLLCFGR_PLLP_Pos) ||
            (READ_BIT(pll_config, RCC_PLLCFGR_PLLQ) != (RCC_OscInitStruct->PLL.PLLQ << RCC_PLLCFGR_PLLQ_Pos)) ||
            (READ_BIT(pll_config, RCC_PLLCFGR_PLLR) != (RCC_OscInitStruct->PLL.PLLR << RCC_PLLCFGR_PLLR_Pos)))
#else
        if (((RCC_OscInitStruct->PLL.PLLState) == RCC_PLL_OFF) ||
 8001d82:	687b      	ldr	r3, [r7, #4]
 8001d84:	699b      	ldr	r3, [r3, #24]
 8001d86:	2b01      	cmp	r3, #1
 8001d88:	d028      	beq.n	8001ddc <HAL_RCC_OscConfig+0x4dc>
            (READ_BIT(pll_config, RCC_PLLCFGR_PLLSRC) != RCC_OscInitStruct->PLL.PLLSource) ||
 8001d8a:	68fb      	ldr	r3, [r7, #12]
 8001d8c:	f403 0280 	and.w	r2, r3, #4194304	@ 0x400000
 8001d90:	687b      	ldr	r3, [r7, #4]
 8001d92:	69db      	ldr	r3, [r3, #28]
        if (((RCC_OscInitStruct->PLL.PLLState) == RCC_PLL_OFF) ||
 8001d94:	429a      	cmp	r2, r3
 8001d96:	d121      	bne.n	8001ddc <HAL_RCC_OscConfig+0x4dc>
            (READ_BIT(pll_config, RCC_PLLCFGR_PLLM) != (RCC_OscInitStruct->PLL.PLLM) << RCC_PLLCFGR_PLLM_Pos) ||
 8001d98:	68fb      	ldr	r3, [r7, #12]
 8001d9a:	f003 023f 	and.w	r2, r3, #63	@ 0x3f
 8001d9e:	687b      	ldr	r3, [r7, #4]
 8001da0:	6a1b      	ldr	r3, [r3, #32]
            (READ_BIT(pll_config, RCC_PLLCFGR_PLLSRC) != RCC_OscInitStruct->PLL.PLLSource) ||
 8001da2:	429a      	cmp	r2, r3
 8001da4:	d11a      	bne.n	8001ddc <HAL_RCC_OscConfig+0x4dc>
            (READ_BIT(pll_config, RCC_PLLCFGR_PLLN) != (RCC_OscInitStruct->PLL.PLLN) << RCC_PLLCFGR_PLLN_Pos) ||
 8001da6:	68fa      	ldr	r2, [r7, #12]
 8001da8:	f647 73c0 	movw	r3, #32704	@ 0x7fc0
 8001dac:	4013      	ands	r3, r2
 8001dae:	687a      	ldr	r2, [r7, #4]
 8001db0:	6a52      	ldr	r2, [r2, #36]	@ 0x24
 8001db2:	0192      	lsls	r2, r2, #6
            (READ_BIT(pll_config, RCC_PLLCFGR_PLLM) != (RCC_OscInitStruct->PLL.PLLM) << RCC_PLLCFGR_PLLM_Pos) ||
 8001db4:	4293      	cmp	r3, r2
 8001db6:	d111      	bne.n	8001ddc <HAL_RCC_OscConfig+0x4dc>
            (READ_BIT(pll_config, RCC_PLLCFGR_PLLP) != (((RCC_OscInitStruct->PLL.PLLP >> 1U) - 1U)) << RCC_PLLCFGR_PLLP_Pos) ||
 8001db8:	68fb      	ldr	r3, [r7, #12]
 8001dba:	f403 3240 	and.w	r2, r3, #196608	@ 0x30000
 8001dbe:	687b      	ldr	r3, [r7, #4]
 8001dc0:	6a9b      	ldr	r3, [r3, #40]	@ 0x28
 8001dc2:	085b      	lsrs	r3, r3, #1
 8001dc4:	3b01      	subs	r3, #1
 8001dc6:	041b      	lsls	r3, r3, #16
            (READ_BIT(pll_config, RCC_PLLCFGR_PLLN) != (RCC_OscInitStruct->PLL.PLLN) << RCC_PLLCFGR_PLLN_Pos) ||
 8001dc8:	429a      	cmp	r2, r3
 8001dca:	d107      	bne.n	8001ddc <HAL_RCC_OscConfig+0x4dc>
            (READ_BIT(pll_config, RCC_PLLCFGR_PLLQ) != (RCC_OscInitStruct->PLL.PLLQ << RCC_PLLCFGR_PLLQ_Pos)))
 8001dcc:	68fb      	ldr	r3, [r7, #12]
 8001dce:	f003 6270 	and.w	r2, r3, #251658240	@ 0xf000000
 8001dd2:	687b      	ldr	r3, [r7, #4]
 8001dd4:	6adb      	ldr	r3, [r3, #44]	@ 0x2c
 8001dd6:	061b      	lsls	r3, r3, #24
            (READ_BIT(pll_config, RCC_PLLCFGR_PLLP) != (((RCC_OscInitStruct->PLL.PLLP >> 1U) - 1U)) << RCC_PLLCFGR_PLLP_Pos) ||
 8001dd8:	429a      	cmp	r2, r3
 8001dda:	d001      	beq.n	8001de0 <HAL_RCC_OscConfig+0x4e0>
#endif /* RCC_PLLCFGR_PLLR */
        {
          return HAL_ERROR;
 8001ddc:	2301      	movs	r3, #1
 8001dde:	e000      	b.n	8001de2 <HAL_RCC_OscConfig+0x4e2>
        }
      }
    }
  }
  return HAL_OK;
 8001de0:	2300      	movs	r3, #0
}
 8001de2:	4618      	mov	r0, r3
 8001de4:	3718      	adds	r7, #24
 8001de6:	46bd      	mov	sp, r7
 8001de8:	bd80      	pop	{r7, pc}
 8001dea:	bf00      	nop
 8001dec:	40023800 	.word	0x40023800

08001df0 <HAL_RCC_ClockConfig>:
  *         HPRE[3:0] bits to ensure that HCLK not exceed the maximum allowed frequency
  *         (for more details refer to section above "Initialization/de-initialization functions")
  * @retval None
  */
HAL_StatusTypeDef HAL_RCC_ClockConfig(RCC_ClkInitTypeDef  *RCC_ClkInitStruct, uint32_t FLatency)
{
 8001df0:	b580      	push	{r7, lr}
 8001df2:	b084      	sub	sp, #16
 8001df4:	af00      	add	r7, sp, #0
 8001df6:	6078      	str	r0, [r7, #4]
 8001df8:	6039      	str	r1, [r7, #0]
  uint32_t tickstart;

  /* Check Null pointer */
  if (RCC_ClkInitStruct == NULL)
 8001dfa:	687b      	ldr	r3, [r7, #4]
 8001dfc:	2b00      	cmp	r3, #0
 8001dfe:	d101      	bne.n	8001e04 <HAL_RCC_ClockConfig+0x14>
  {
    return HAL_ERROR;
 8001e00:	2301      	movs	r3, #1
 8001e02:	e0cc      	b.n	8001f9e <HAL_RCC_ClockConfig+0x1ae>
  /* To correctly read data from FLASH memory, the number of wait states (LATENCY)
    must be correctly programmed according to the frequency of the CPU clock
    (HCLK) and the supply voltage of the device. */

  /* Increasing the number of wait states because of higher CPU frequency */
  if (FLatency > __HAL_FLASH_GET_LATENCY())
 8001e04:	4b68      	ldr	r3, [pc, #416]	@ (8001fa8 <HAL_RCC_ClockConfig+0x1b8>)
 8001e06:	681b      	ldr	r3, [r3, #0]
 8001e08:	f003 0307 	and.w	r3, r3, #7
 8001e0c:	683a      	ldr	r2, [r7, #0]
 8001e0e:	429a      	cmp	r2, r3
 8001e10:	d90c      	bls.n	8001e2c <HAL_RCC_ClockConfig+0x3c>
  {
    /* Program the new number of wait states to the LATENCY bits in the FLASH_ACR register */
    __HAL_FLASH_SET_LATENCY(FLatency);
 8001e12:	4b65      	ldr	r3, [pc, #404]	@ (8001fa8 <HAL_RCC_ClockConfig+0x1b8>)
 8001e14:	683a      	ldr	r2, [r7, #0]
 8001e16:	b2d2      	uxtb	r2, r2
 8001e18:	701a      	strb	r2, [r3, #0]

    /* Check that the new number of wait states is taken into account to access the Flash
    memory by reading the FLASH_ACR register */
    if (__HAL_FLASH_GET_LATENCY() != FLatency)
 8001e1a:	4b63      	ldr	r3, [pc, #396]	@ (8001fa8 <HAL_RCC_ClockConfig+0x1b8>)
 8001e1c:	681b      	ldr	r3, [r3, #0]
 8001e1e:	f003 0307 	and.w	r3, r3, #7
 8001e22:	683a      	ldr	r2, [r7, #0]
 8001e24:	429a      	cmp	r2, r3
 8001e26:	d001      	beq.n	8001e2c <HAL_RCC_ClockConfig+0x3c>
    {
      return HAL_ERROR;
 8001e28:	2301      	movs	r3, #1
 8001e2a:	e0b8      	b.n	8001f9e <HAL_RCC_ClockConfig+0x1ae>
    }
  }

  /*-------------------------- HCLK Configuration --------------------------*/
  if (((RCC_ClkInitStruct->ClockType) & RCC_CLOCKTYPE_HCLK) == RCC_CLOCKTYPE_HCLK)
 8001e2c:	687b      	ldr	r3, [r7, #4]
 8001e2e:	681b      	ldr	r3, [r3, #0]
 8001e30:	f003 0302 	and.w	r3, r3, #2
 8001e34:	2b00      	cmp	r3, #0
 8001e36:	d020      	beq.n	8001e7a <HAL_RCC_ClockConfig+0x8a>
  {
    /* Set the highest APBx dividers in order to ensure that we do not go through
       a non-spec phase whatever we decrease or increase HCLK. */
    if (((RCC_ClkInitStruct->ClockType) & RCC_CLOCKTYPE_PCLK1) == RCC_CLOCKTYPE_PCLK1)
 8001e38:	687b      	ldr	r3, [r7, #4]
 8001e3a:	681b      	ldr	r3, [r3, #0]
 8001e3c:	f003 0304 	and.w	r3, r3, #4
 8001e40:	2b00      	cmp	r3, #0
 8001e42:	d005      	beq.n	8001e50 <HAL_RCC_ClockConfig+0x60>
    {
      MODIFY_REG(RCC->CFGR, RCC_CFGR_PPRE1, RCC_HCLK_DIV16);
 8001e44:	4b59      	ldr	r3, [pc, #356]	@ (8001fac <HAL_RCC_ClockConfig+0x1bc>)
 8001e46:	689b      	ldr	r3, [r3, #8]
 8001e48:	4a58      	ldr	r2, [pc, #352]	@ (8001fac <HAL_RCC_ClockConfig+0x1bc>)
 8001e4a:	f443 53e0 	orr.w	r3, r3, #7168	@ 0x1c00
 8001e4e:	6093      	str	r3, [r2, #8]
    }

    if (((RCC_ClkInitStruct->ClockType) & RCC_CLOCKTYPE_PCLK2) == RCC_CLOCKTYPE_PCLK2)
 8001e50:	687b      	ldr	r3, [r7, #4]
 8001e52:	681b      	ldr	r3, [r3, #0]
 8001e54:	f003 0308 	and.w	r3, r3, #8
 8001e58:	2b00      	cmp	r3, #0
 8001e5a:	d005      	beq.n	8001e68 <HAL_RCC_ClockConfig+0x78>
    {
      MODIFY_REG(RCC->CFGR, RCC_CFGR_PPRE2, (RCC_HCLK_DIV16 << 3));
 8001e5c:	4b53      	ldr	r3, [pc, #332]	@ (8001fac <HAL_RCC_ClockConfig+0x1bc>)
 8001e5e:	689b      	ldr	r3, [r3, #8]
 8001e60:	4a52      	ldr	r2, [pc, #328]	@ (8001fac <HAL_RCC_ClockConfig+0x1bc>)
 8001e62:	f443 4360 	orr.w	r3, r3, #57344	@ 0xe000
 8001e66:	6093      	str	r3, [r2, #8]
    }

    assert_param(IS_RCC_HCLK(RCC_ClkInitStruct->AHBCLKDivider));
    MODIFY_REG(RCC->CFGR, RCC_CFGR_HPRE, RCC_ClkInitStruct->AHBCLKDivider);
 8001e68:	4b50      	ldr	r3, [pc, #320]	@ (8001fac <HAL_RCC_ClockConfig+0x1bc>)
 8001e6a:	689b      	ldr	r3, [r3, #8]
 8001e6c:	f023 02f0 	bic.w	r2, r3, #240	@ 0xf0
 8001e70:	687b      	ldr	r3, [r7, #4]
 8001e72:	689b      	ldr	r3, [r3, #8]
 8001e74:	494d      	ldr	r1, [pc, #308]	@ (8001fac <HAL_RCC_ClockConfig+0x1bc>)
 8001e76:	4313      	orrs	r3, r2
 8001e78:	608b      	str	r3, [r1, #8]
  }

  /*------------------------- SYSCLK Configuration ---------------------------*/
  if (((RCC_ClkInitStruct->ClockType) & RCC_CLOCKTYPE_SYSCLK) == RCC_CLOCKTYPE_SYSCLK)
 8001e7a:	687b      	ldr	r3, [r7, #4]
 8001e7c:	681b      	ldr	r3, [r3, #0]
 8001e7e:	f003 0301 	and.w	r3, r3, #1
 8001e82:	2b00      	cmp	r3, #0
 8001e84:	d044      	beq.n	8001f10 <HAL_RCC_ClockConfig+0x120>
  {
    assert_param(IS_RCC_SYSCLKSOURCE(RCC_ClkInitStruct->SYSCLKSource));

    /* HSE is selected as System Clock Source */
    if (RCC_ClkInitStruct->SYSCLKSource == RCC_SYSCLKSOURCE_HSE)
 8001e86:	687b      	ldr	r3, [r7, #4]
 8001e88:	685b      	ldr	r3, [r3, #4]
 8001e8a:	2b01      	cmp	r3, #1
 8001e8c:	d107      	bne.n	8001e9e <HAL_RCC_ClockConfig+0xae>
    {
      /* Check the HSE ready flag */
      if (__HAL_RCC_GET_FLAG(RCC_FLAG_HSERDY) == RESET)
 8001e8e:	4b47      	ldr	r3, [pc, #284]	@ (8001fac <HAL_RCC_ClockConfig+0x1bc>)
 8001e90:	681b      	ldr	r3, [r3, #0]
 8001e92:	f403 3300 	and.w	r3, r3, #131072	@ 0x20000
 8001e96:	2b00      	cmp	r3, #0
 8001e98:	d119      	bne.n	8001ece <HAL_RCC_ClockConfig+0xde>
      {
        return HAL_ERROR;
 8001e9a:	2301      	movs	r3, #1
 8001e9c:	e07f      	b.n	8001f9e <HAL_RCC_ClockConfig+0x1ae>
      }
    }
    /* PLL is selected as System Clock Source */
    else if ((RCC_ClkInitStruct->SYSCLKSource == RCC_SYSCLKSOURCE_PLLCLK)   ||
 8001e9e:	687b      	ldr	r3, [r7, #4]
 8001ea0:	685b      	ldr	r3, [r3, #4]
 8001ea2:	2b02      	cmp	r3, #2
 8001ea4:	d003      	beq.n	8001eae <HAL_RCC_ClockConfig+0xbe>
             (RCC_ClkInitStruct->SYSCLKSource == RCC_SYSCLKSOURCE_PLLRCLK))
 8001ea6:	687b      	ldr	r3, [r7, #4]
 8001ea8:	685b      	ldr	r3, [r3, #4]
    else if ((RCC_ClkInitStruct->SYSCLKSource == RCC_SYSCLKSOURCE_PLLCLK)   ||
 8001eaa:	2b03      	cmp	r3, #3
 8001eac:	d107      	bne.n	8001ebe <HAL_RCC_ClockConfig+0xce>
    {
      /* Check the PLL ready flag */
      if (__HAL_RCC_GET_FLAG(RCC_FLAG_PLLRDY) == RESET)
 8001eae:	4b3f      	ldr	r3, [pc, #252]	@ (8001fac <HAL_RCC_ClockConfig+0x1bc>)
 8001eb0:	681b      	ldr	r3, [r3, #0]
 8001eb2:	f003 7300 	and.w	r3, r3, #33554432	@ 0x2000000
 8001eb6:	2b00      	cmp	r3, #0
 8001eb8:	d109      	bne.n	8001ece <HAL_RCC_ClockConfig+0xde>
      {
        return HAL_ERROR;
 8001eba:	2301      	movs	r3, #1
 8001ebc:	e06f      	b.n	8001f9e <HAL_RCC_ClockConfig+0x1ae>
    }
    /* HSI is selected as System Clock Source */
    else
    {
      /* Check the HSI ready flag */
      if (__HAL_RCC_GET_FLAG(RCC_FLAG_HSIRDY) == RESET)
 8001ebe:	4b3b      	ldr	r3, [pc, #236]	@ (8001fac <HAL_RCC_ClockConfig+0x1bc>)
 8001ec0:	681b      	ldr	r3, [r3, #0]
 8001ec2:	f003 0302 	and.w	r3, r3, #2
 8001ec6:	2b00      	cmp	r3, #0
 8001ec8:	d101      	bne.n	8001ece <HAL_RCC_ClockConfig+0xde>
      {
        return HAL_ERROR;
 8001eca:	2301      	movs	r3, #1
 8001ecc:	e067      	b.n	8001f9e <HAL_RCC_ClockConfig+0x1ae>
      }
    }

    __HAL_RCC_SYSCLK_CONFIG(RCC_ClkInitStruct->SYSCLKSource);
 8001ece:	4b37      	ldr	r3, [pc, #220]	@ (8001fac <HAL_RCC_ClockConfig+0x1bc>)
 8001ed0:	689b      	ldr	r3, [r3, #8]
 8001ed2:	f023 0203 	bic.w	r2, r3, #3
 8001ed6:	687b      	ldr	r3, [r7, #4]
 8001ed8:	685b      	ldr	r3, [r3, #4]
 8001eda:	4934      	ldr	r1, [pc, #208]	@ (8001fac <HAL_RCC_ClockConfig+0x1bc>)
 8001edc:	4313      	orrs	r3, r2
 8001ede:	608b      	str	r3, [r1, #8]

    /* Get Start Tick */
    tickstart = HAL_GetTick();
 8001ee0:	f7fe fefc 	bl	8000cdc <HAL_GetTick>
 8001ee4:	60f8      	str	r0, [r7, #12]

    while (__HAL_RCC_GET_SYSCLK_SOURCE() != (RCC_ClkInitStruct->SYSCLKSource << RCC_CFGR_SWS_Pos))
 8001ee6:	e00a      	b.n	8001efe <HAL_RCC_ClockConfig+0x10e>
    {
      if ((HAL_GetTick() - tickstart) > CLOCKSWITCH_TIMEOUT_VALUE)
 8001ee8:	f7fe fef8 	bl	8000cdc <HAL_GetTick>
 8001eec:	4602      	mov	r2, r0
 8001eee:	68fb      	ldr	r3, [r7, #12]
 8001ef0:	1ad3      	subs	r3, r2, r3
 8001ef2:	f241 3288 	movw	r2, #5000	@ 0x1388
 8001ef6:	4293      	cmp	r3, r2
 8001ef8:	d901      	bls.n	8001efe <HAL_RCC_ClockConfig+0x10e>
      {
        return HAL_TIMEOUT;
 8001efa:	2303      	movs	r3, #3
 8001efc:	e04f      	b.n	8001f9e <HAL_RCC_ClockConfig+0x1ae>
    while (__HAL_RCC_GET_SYSCLK_SOURCE() != (RCC_ClkInitStruct->SYSCLKSource << RCC_CFGR_SWS_Pos))
 8001efe:	4b2b      	ldr	r3, [pc, #172]	@ (8001fac <HAL_RCC_ClockConfig+0x1bc>)
 8001f00:	689b      	ldr	r3, [r3, #8]
 8001f02:	f003 020c 	and.w	r2, r3, #12
 8001f06:	687b      	ldr	r3, [r7, #4]
 8001f08:	685b      	ldr	r3, [r3, #4]
 8001f0a:	009b      	lsls	r3, r3, #2
 8001f0c:	429a      	cmp	r2, r3
 8001f0e:	d1eb      	bne.n	8001ee8 <HAL_RCC_ClockConfig+0xf8>
      }
    }
  }

  /* Decreasing the number of wait states because of lower CPU frequency */
  if (FLatency < __HAL_FLASH_GET_LATENCY())
 8001f10:	4b25      	ldr	r3, [pc, #148]	@ (8001fa8 <HAL_RCC_ClockConfig+0x1b8>)
 8001f12:	681b      	ldr	r3, [r3, #0]
 8001f14:	f003 0307 	and.w	r3, r3, #7
 8001f18:	683a      	ldr	r2, [r7, #0]
 8001f1a:	429a      	cmp	r2, r3
 8001f1c:	d20c      	bcs.n	8001f38 <HAL_RCC_ClockConfig+0x148>
  {
    /* Program the new number of wait states to the LATENCY bits in the FLASH_ACR register */
    __HAL_FLASH_SET_LATENCY(FLatency);
 8001f1e:	4b22      	ldr	r3, [pc, #136]	@ (8001fa8 <HAL_RCC_ClockConfig+0x1b8>)
 8001f20:	683a      	ldr	r2, [r7, #0]
 8001f22:	b2d2      	uxtb	r2, r2
 8001f24:	701a      	strb	r2, [r3, #0]

    /* Check that the new number of wait states is taken into account to access the Flash
    memory by reading the FLASH_ACR register */
    if (__HAL_FLASH_GET_LATENCY() != FLatency)
 8001f26:	4b20      	ldr	r3, [pc, #128]	@ (8001fa8 <HAL_RCC_ClockConfig+0x1b8>)
 8001f28:	681b      	ldr	r3, [r3, #0]
 8001f2a:	f003 0307 	and.w	r3, r3, #7
 8001f2e:	683a      	ldr	r2, [r7, #0]
 8001f30:	429a      	cmp	r2, r3
 8001f32:	d001      	beq.n	8001f38 <HAL_RCC_ClockConfig+0x148>
    {
      return HAL_ERROR;
 8001f34:	2301      	movs	r3, #1
 8001f36:	e032      	b.n	8001f9e <HAL_RCC_ClockConfig+0x1ae>
    }
  }

  /*-------------------------- PCLK1 Configuration ---------------------------*/
  if (((RCC_ClkInitStruct->ClockType) & RCC_CLOCKTYPE_PCLK1) == RCC_CLOCKTYPE_PCLK1)
 8001f38:	687b      	ldr	r3, [r7, #4]
 8001f3a:	681b      	ldr	r3, [r3, #0]
 8001f3c:	f003 0304 	and.w	r3, r3, #4
 8001f40:	2b00      	cmp	r3, #0
 8001f42:	d008      	beq.n	8001f56 <HAL_RCC_ClockConfig+0x166>
  {
    assert_param(IS_RCC_PCLK(RCC_ClkInitStruct->APB1CLKDivider));
    MODIFY_REG(RCC->CFGR, RCC_CFGR_PPRE1, RCC_ClkInitStruct->APB1CLKDivider);
 8001f44:	4b19      	ldr	r3, [pc, #100]	@ (8001fac <HAL_RCC_ClockConfig+0x1bc>)
 8001f46:	689b      	ldr	r3, [r3, #8]
 8001f48:	f423 52e0 	bic.w	r2, r3, #7168	@ 0x1c00
 8001f4c:	687b      	ldr	r3, [r7, #4]
 8001f4e:	68db      	ldr	r3, [r3, #12]
 8001f50:	4916      	ldr	r1, [pc, #88]	@ (8001fac <HAL_RCC_ClockConfig+0x1bc>)
 8001f52:	4313      	orrs	r3, r2
 8001f54:	608b      	str	r3, [r1, #8]
  }

  /*-------------------------- PCLK2 Configuration ---------------------------*/
  if (((RCC_ClkInitStruct->ClockType) & RCC_CLOCKTYPE_PCLK2) == RCC_CLOCKTYPE_PCLK2)
 8001f56:	687b      	ldr	r3, [r7, #4]
 8001f58:	681b      	ldr	r3, [r3, #0]
 8001f5a:	f003 0308 	and.w	r3, r3, #8
 8001f5e:	2b00      	cmp	r3, #0
 8001f60:	d009      	beq.n	8001f76 <HAL_RCC_ClockConfig+0x186>
  {
    assert_param(IS_RCC_PCLK(RCC_ClkInitStruct->APB2CLKDivider));
    MODIFY_REG(RCC->CFGR, RCC_CFGR_PPRE2, ((RCC_ClkInitStruct->APB2CLKDivider) << 3U));
 8001f62:	4b12      	ldr	r3, [pc, #72]	@ (8001fac <HAL_RCC_ClockConfig+0x1bc>)
 8001f64:	689b      	ldr	r3, [r3, #8]
 8001f66:	f423 4260 	bic.w	r2, r3, #57344	@ 0xe000
 8001f6a:	687b      	ldr	r3, [r7, #4]
 8001f6c:	691b      	ldr	r3, [r3, #16]
 8001f6e:	00db      	lsls	r3, r3, #3
 8001f70:	490e      	ldr	r1, [pc, #56]	@ (8001fac <HAL_RCC_ClockConfig+0x1bc>)
 8001f72:	4313      	orrs	r3, r2
 8001f74:	608b      	str	r3, [r1, #8]
  }

  /* Update the SystemCoreClock global variable */
  SystemCoreClock = HAL_RCC_GetSysClockFreq() >> AHBPrescTable[(RCC->CFGR & RCC_CFGR_HPRE) >> RCC_CFGR_HPRE_Pos];
 8001f76:	f000 f821 	bl	8001fbc <HAL_RCC_GetSysClockFreq>
 8001f7a:	4602      	mov	r2, r0
 8001f7c:	4b0b      	ldr	r3, [pc, #44]	@ (8001fac <HAL_RCC_ClockConfig+0x1bc>)
 8001f7e:	689b      	ldr	r3, [r3, #8]
 8001f80:	091b      	lsrs	r3, r3, #4
 8001f82:	f003 030f 	and.w	r3, r3, #15
 8001f86:	490a      	ldr	r1, [pc, #40]	@ (8001fb0 <HAL_RCC_ClockConfig+0x1c0>)
 8001f88:	5ccb      	ldrb	r3, [r1, r3]
 8001f8a:	fa22 f303 	lsr.w	r3, r2, r3
 8001f8e:	4a09      	ldr	r2, [pc, #36]	@ (8001fb4 <HAL_RCC_ClockConfig+0x1c4>)
 8001f90:	6013      	str	r3, [r2, #0]

  /* Configure the source of time base considering new system clocks settings */
  HAL_InitTick(uwTickPrio);
 8001f92:	4b09      	ldr	r3, [pc, #36]	@ (8001fb8 <HAL_RCC_ClockConfig+0x1c8>)
 8001f94:	681b      	ldr	r3, [r3, #0]
 8001f96:	4618      	mov	r0, r3
 8001f98:	f7fe fe5c 	bl	8000c54 <HAL_InitTick>

  return HAL_OK;
 8001f9c:	2300      	movs	r3, #0
}
 8001f9e:	4618      	mov	r0, r3
 8001fa0:	3710      	adds	r7, #16
 8001fa2:	46bd      	mov	sp, r7
 8001fa4:	bd80      	pop	{r7, pc}
 8001fa6:	bf00      	nop
 8001fa8:	40023c00 	.word	0x40023c00
 8001fac:	40023800 	.word	0x40023800
 8001fb0:	08003510 	.word	0x08003510
 8001fb4:	20000004 	.word	0x20000004
 8001fb8:	20000008 	.word	0x20000008

08001fbc <HAL_RCC_GetSysClockFreq>:
  *
  *
  * @retval SYSCLK frequency
  */
__weak uint32_t HAL_RCC_GetSysClockFreq(void)
{
 8001fbc:	e92d 4fb0 	stmdb	sp!, {r4, r5, r7, r8, r9, sl, fp, lr}
 8001fc0:	b090      	sub	sp, #64	@ 0x40
 8001fc2:	af00      	add	r7, sp, #0
  uint32_t pllm = 0U;
 8001fc4:	2300      	movs	r3, #0
 8001fc6:	637b      	str	r3, [r7, #52]	@ 0x34
  uint32_t pllvco = 0U;
 8001fc8:	2300      	movs	r3, #0
 8001fca:	63fb      	str	r3, [r7, #60]	@ 0x3c
  uint32_t pllp = 0U;
 8001fcc:	2300      	movs	r3, #0
 8001fce:	633b      	str	r3, [r7, #48]	@ 0x30
  uint32_t sysclockfreq = 0U;
 8001fd0:	2300      	movs	r3, #0
 8001fd2:	63bb      	str	r3, [r7, #56]	@ 0x38

  /* Get SYSCLK source -------------------------------------------------------*/
  switch (RCC->CFGR & RCC_CFGR_SWS)
 8001fd4:	4b59      	ldr	r3, [pc, #356]	@ (800213c <HAL_RCC_GetSysClockFreq+0x180>)
 8001fd6:	689b      	ldr	r3, [r3, #8]
 8001fd8:	f003 030c 	and.w	r3, r3, #12
 8001fdc:	2b08      	cmp	r3, #8
 8001fde:	d00d      	beq.n	8001ffc <HAL_RCC_GetSysClockFreq+0x40>
 8001fe0:	2b08      	cmp	r3, #8
 8001fe2:	f200 80a1 	bhi.w	8002128 <HAL_RCC_GetSysClockFreq+0x16c>
 8001fe6:	2b00      	cmp	r3, #0
 8001fe8:	d002      	beq.n	8001ff0 <HAL_RCC_GetSysClockFreq+0x34>
 8001fea:	2b04      	cmp	r3, #4
 8001fec:	d003      	beq.n	8001ff6 <HAL_RCC_GetSysClockFreq+0x3a>
 8001fee:	e09b      	b.n	8002128 <HAL_RCC_GetSysClockFreq+0x16c>
  {
    case RCC_CFGR_SWS_HSI:  /* HSI used as system clock source */
    {
      sysclockfreq = HSI_VALUE;
 8001ff0:	4b53      	ldr	r3, [pc, #332]	@ (8002140 <HAL_RCC_GetSysClockFreq+0x184>)
 8001ff2:	63bb      	str	r3, [r7, #56]	@ 0x38
      break;
 8001ff4:	e09b      	b.n	800212e <HAL_RCC_GetSysClockFreq+0x172>
    }
    case RCC_CFGR_SWS_HSE:  /* HSE used as system clock  source */
    {
      sysclockfreq = HSE_VALUE;
 8001ff6:	4b53      	ldr	r3, [pc, #332]	@ (8002144 <HAL_RCC_GetSysClockFreq+0x188>)
 8001ff8:	63bb      	str	r3, [r7, #56]	@ 0x38
      break;
 8001ffa:	e098      	b.n	800212e <HAL_RCC_GetSysClockFreq+0x172>
    }
    case RCC_CFGR_SWS_PLL:  /* PLL used as system clock  source */
    {
      /* PLL_VCO = (HSE_VALUE or HSI_VALUE / PLLM) * PLLN
      SYSCLK = PLL_VCO / PLLP */
      pllm = RCC->PLLCFGR & RCC_PLLCFGR_PLLM;
 8001ffc:	4b4f      	ldr	r3, [pc, #316]	@ (800213c <HAL_RCC_GetSysClockFreq+0x180>)
 8001ffe:	685b      	ldr	r3, [r3, #4]
 8002000:	f003 033f 	and.w	r3, r3, #63	@ 0x3f
 8002004:	637b      	str	r3, [r7, #52]	@ 0x34
      if (__HAL_RCC_GET_PLL_OSCSOURCE() != RCC_PLLSOURCE_HSI)
 8002006:	4b4d      	ldr	r3, [pc, #308]	@ (800213c <HAL_RCC_GetSysClockFreq+0x180>)
 8002008:	685b      	ldr	r3, [r3, #4]
 800200a:	f403 0380 	and.w	r3, r3, #4194304	@ 0x400000
 800200e:	2b00      	cmp	r3, #0
 8002010:	d028      	beq.n	8002064 <HAL_RCC_GetSysClockFreq+0xa8>
      {
        /* HSE used as PLL clock source */
        pllvco = (uint32_t)((((uint64_t) HSE_VALUE * ((uint64_t)((RCC->PLLCFGR & RCC_PLLCFGR_PLLN) >> RCC_PLLCFGR_PLLN_Pos)))) / (uint64_t)pllm);
 8002012:	4b4a      	ldr	r3, [pc, #296]	@ (800213c <HAL_RCC_GetSysClockFreq+0x180>)
 8002014:	685b      	ldr	r3, [r3, #4]
 8002016:	099b      	lsrs	r3, r3, #6
 8002018:	2200      	movs	r2, #0
 800201a:	623b      	str	r3, [r7, #32]
 800201c:	627a      	str	r2, [r7, #36]	@ 0x24
 800201e:	6a3b      	ldr	r3, [r7, #32]
 8002020:	f3c3 0008 	ubfx	r0, r3, #0, #9
 8002024:	2100      	movs	r1, #0
 8002026:	4b47      	ldr	r3, [pc, #284]	@ (8002144 <HAL_RCC_GetSysClockFreq+0x188>)
 8002028:	fb03 f201 	mul.w	r2, r3, r1
 800202c:	2300      	movs	r3, #0
 800202e:	fb00 f303 	mul.w	r3, r0, r3
 8002032:	4413      	add	r3, r2
 8002034:	4a43      	ldr	r2, [pc, #268]	@ (8002144 <HAL_RCC_GetSysClockFreq+0x188>)
 8002036:	fba0 1202 	umull	r1, r2, r0, r2
 800203a:	62fa      	str	r2, [r7, #44]	@ 0x2c
 800203c:	460a      	mov	r2, r1
 800203e:	62ba      	str	r2, [r7, #40]	@ 0x28
 8002040:	6afa      	ldr	r2, [r7, #44]	@ 0x2c
 8002042:	4413      	add	r3, r2
 8002044:	62fb      	str	r3, [r7, #44]	@ 0x2c
 8002046:	6b7b      	ldr	r3, [r7, #52]	@ 0x34
 8002048:	2200      	movs	r2, #0
 800204a:	61bb      	str	r3, [r7, #24]
 800204c:	61fa      	str	r2, [r7, #28]
 800204e:	e9d7 2306 	ldrd	r2, r3, [r7, #24]
 8002052:	e9d7 010a 	ldrd	r0, r1, [r7, #40]	@ 0x28
 8002056:	f7fe f8bf 	bl	80001d8 <__aeabi_uldivmod>
 800205a:	4602      	mov	r2, r0
 800205c:	460b      	mov	r3, r1
 800205e:	4613      	mov	r3, r2
 8002060:	63fb      	str	r3, [r7, #60]	@ 0x3c
 8002062:	e053      	b.n	800210c <HAL_RCC_GetSysClockFreq+0x150>
      }
      else
      {
        /* HSI used as PLL clock source */
        pllvco = (uint32_t)((((uint64_t) HSI_VALUE * ((uint64_t)((RCC->PLLCFGR & RCC_PLLCFGR_PLLN) >> RCC_PLLCFGR_PLLN_Pos)))) / (uint64_t)pllm);
 8002064:	4b35      	ldr	r3, [pc, #212]	@ (800213c <HAL_RCC_GetSysClockFreq+0x180>)
 8002066:	685b      	ldr	r3, [r3, #4]
 8002068:	099b      	lsrs	r3, r3, #6
 800206a:	2200      	movs	r2, #0
 800206c:	613b      	str	r3, [r7, #16]
 800206e:	617a      	str	r2, [r7, #20]
 8002070:	693b      	ldr	r3, [r7, #16]
 8002072:	f3c3 0a08 	ubfx	sl, r3, #0, #9
 8002076:	f04f 0b00 	mov.w	fp, #0
 800207a:	4652      	mov	r2, sl
 800207c:	465b      	mov	r3, fp
 800207e:	f04f 0000 	mov.w	r0, #0
 8002082:	f04f 0100 	mov.w	r1, #0
 8002086:	0159      	lsls	r1, r3, #5
 8002088:	ea41 61d2 	orr.w	r1, r1, r2, lsr #27
 800208c:	0150      	lsls	r0, r2, #5
 800208e:	4602      	mov	r2, r0
 8002090:	460b      	mov	r3, r1
 8002092:	ebb2 080a 	subs.w	r8, r2, sl
 8002096:	eb63 090b 	sbc.w	r9, r3, fp
 800209a:	f04f 0200 	mov.w	r2, #0
 800209e:	f04f 0300 	mov.w	r3, #0
 80020a2:	ea4f 1389 	mov.w	r3, r9, lsl #6
 80020a6:	ea43 6398 	orr.w	r3, r3, r8, lsr #26
 80020aa:	ea4f 1288 	mov.w	r2, r8, lsl #6
 80020ae:	ebb2 0408 	subs.w	r4, r2, r8
 80020b2:	eb63 0509 	sbc.w	r5, r3, r9
 80020b6:	f04f 0200 	mov.w	r2, #0
 80020ba:	f04f 0300 	mov.w	r3, #0
 80020be:	00eb      	lsls	r3, r5, #3
 80020c0:	ea43 7354 	orr.w	r3, r3, r4, lsr #29
 80020c4:	00e2      	lsls	r2, r4, #3
 80020c6:	4614      	mov	r4, r2
 80020c8:	461d      	mov	r5, r3
 80020ca:	eb14 030a 	adds.w	r3, r4, sl
 80020ce:	603b      	str	r3, [r7, #0]
 80020d0:	eb45 030b 	adc.w	r3, r5, fp
 80020d4:	607b      	str	r3, [r7, #4]
 80020d6:	f04f 0200 	mov.w	r2, #0
 80020da:	f04f 0300 	mov.w	r3, #0
 80020de:	e9d7 4500 	ldrd	r4, r5, [r7]
 80020e2:	4629      	mov	r1, r5
 80020e4:	028b      	lsls	r3, r1, #10
 80020e6:	4621      	mov	r1, r4
 80020e8:	ea43 5391 	orr.w	r3, r3, r1, lsr #22
 80020ec:	4621      	mov	r1, r4
 80020ee:	028a      	lsls	r2, r1, #10
 80020f0:	4610      	mov	r0, r2
 80020f2:	4619      	mov	r1, r3
 80020f4:	6b7b      	ldr	r3, [r7, #52]	@ 0x34
 80020f6:	2200      	movs	r2, #0
 80020f8:	60bb      	str	r3, [r7, #8]
 80020fa:	60fa      	str	r2, [r7, #12]
 80020fc:	e9d7 2302 	ldrd	r2, r3, [r7, #8]
 8002100:	f7fe f86a 	bl	80001d8 <__aeabi_uldivmod>
 8002104:	4602      	mov	r2, r0
 8002106:	460b      	mov	r3, r1
 8002108:	4613      	mov	r3, r2
 800210a:	63fb      	str	r3, [r7, #60]	@ 0x3c
      }
      pllp = ((((RCC->PLLCFGR & RCC_PLLCFGR_PLLP) >> RCC_PLLCFGR_PLLP_Pos) + 1U) * 2U);
 800210c:	4b0b      	ldr	r3, [pc, #44]	@ (800213c <HAL_RCC_GetSysClockFreq+0x180>)
 800210e:	685b      	ldr	r3, [r3, #4]
 8002110:	0c1b      	lsrs	r3, r3, #16
 8002112:	f003 0303 	and.w	r3, r3, #3
 8002116:	3301      	adds	r3, #1
 8002118:	005b      	lsls	r3, r3, #1
 800211a:	633b      	str	r3, [r7, #48]	@ 0x30

      sysclockfreq = pllvco / pllp;
 800211c:	6bfa      	ldr	r2, [r7, #60]	@ 0x3c
 800211e:	6b3b      	ldr	r3, [r7, #48]	@ 0x30
 8002120:	fbb2 f3f3 	udiv	r3, r2, r3
 8002124:	63bb      	str	r3, [r7, #56]	@ 0x38
      break;
 8002126:	e002      	b.n	800212e <HAL_RCC_GetSysClockFreq+0x172>
    }
    default:
    {
      sysclockfreq = HSI_VALUE;
 8002128:	4b05      	ldr	r3, [pc, #20]	@ (8002140 <HAL_RCC_GetSysClockFreq+0x184>)
 800212a:	63bb      	str	r3, [r7, #56]	@ 0x38
      break;
 800212c:	bf00      	nop
    }
  }
  return sysclockfreq;
 800212e:	6bbb      	ldr	r3, [r7, #56]	@ 0x38
}
 8002130:	4618      	mov	r0, r3
 8002132:	3740      	adds	r7, #64	@ 0x40
 8002134:	46bd      	mov	sp, r7
 8002136:	e8bd 8fb0 	ldmia.w	sp!, {r4, r5, r7, r8, r9, sl, fp, pc}
 800213a:	bf00      	nop
 800213c:	40023800 	.word	0x40023800
 8002140:	00f42400 	.word	0x00f42400
 8002144:	017d7840 	.word	0x017d7840

08002148 <HAL_TIM_Base_Init>:
  *         Ex: call @ref HAL_TIM_Base_DeInit() before HAL_TIM_Base_Init()
  * @param  htim TIM Base handle
  * @retval HAL status
  */
HAL_StatusTypeDef HAL_TIM_Base_Init(TIM_HandleTypeDef *htim)
{
 8002148:	b580      	push	{r7, lr}
 800214a:	b082      	sub	sp, #8
 800214c:	af00      	add	r7, sp, #0
 800214e:	6078      	str	r0, [r7, #4]
  /* Check the TIM handle allocation */
  if (htim == NULL)
 8002150:	687b      	ldr	r3, [r7, #4]
 8002152:	2b00      	cmp	r3, #0
 8002154:	d101      	bne.n	800215a <HAL_TIM_Base_Init+0x12>
  {
    return HAL_ERROR;
 8002156:	2301      	movs	r3, #1
 8002158:	e041      	b.n	80021de <HAL_TIM_Base_Init+0x96>
  assert_param(IS_TIM_COUNTER_MODE(htim->Init.CounterMode));
  assert_param(IS_TIM_CLOCKDIVISION_DIV(htim->Init.ClockDivision));
  assert_param(IS_TIM_PERIOD(htim, htim->Init.Period));
  assert_param(IS_TIM_AUTORELOAD_PRELOAD(htim->Init.AutoReloadPreload));

  if (htim->State == HAL_TIM_STATE_RESET)
 800215a:	687b      	ldr	r3, [r7, #4]
 800215c:	f893 303d 	ldrb.w	r3, [r3, #61]	@ 0x3d
 8002160:	b2db      	uxtb	r3, r3
 8002162:	2b00      	cmp	r3, #0
 8002164:	d106      	bne.n	8002174 <HAL_TIM_Base_Init+0x2c>
  {
    /* Allocate lock resource and initialize it */
    htim->Lock = HAL_UNLOCKED;
 8002166:	687b      	ldr	r3, [r7, #4]
 8002168:	2200      	movs	r2, #0
 800216a:	f883 203c 	strb.w	r2, [r3, #60]	@ 0x3c
    }
    /* Init the low level hardware : GPIO, CLOCK, NVIC */
    htim->Base_MspInitCallback(htim);
#else
    /* Init the low level hardware : GPIO, CLOCK, NVIC */
    HAL_TIM_Base_MspInit(htim);
 800216e:	6878      	ldr	r0, [r7, #4]
 8002170:	f7fe fc96 	bl	8000aa0 <HAL_TIM_Base_MspInit>
#endif /* USE_HAL_TIM_REGISTER_CALLBACKS */
  }

  /* Set the TIM state */
  htim->State = HAL_TIM_STATE_BUSY;
 8002174:	687b      	ldr	r3, [r7, #4]
 8002176:	2202      	movs	r2, #2
 8002178:	f883 203d 	strb.w	r2, [r3, #61]	@ 0x3d

  /* Set the Time Base configuration */
  TIM_Base_SetConfig(htim->Instance, &htim->Init);
 800217c:	687b      	ldr	r3, [r7, #4]
 800217e:	681a      	ldr	r2, [r3, #0]
 8002180:	687b      	ldr	r3, [r7, #4]
 8002182:	3304      	adds	r3, #4
 8002184:	4619      	mov	r1, r3
 8002186:	4610      	mov	r0, r2
 8002188:	f000 fd74 	bl	8002c74 <TIM_Base_SetConfig>

  /* Initialize the DMA burst operation state */
  htim->DMABurstState = HAL_DMA_BURST_STATE_READY;
 800218c:	687b      	ldr	r3, [r7, #4]
 800218e:	2201      	movs	r2, #1
 8002190:	f883 2046 	strb.w	r2, [r3, #70]	@ 0x46

  /* Initialize the TIM channels state */
  TIM_CHANNEL_STATE_SET_ALL(htim, HAL_TIM_CHANNEL_STATE_READY);
 8002194:	687b      	ldr	r3, [r7, #4]
 8002196:	2201      	movs	r2, #1
 8002198:	f883 203e 	strb.w	r2, [r3, #62]	@ 0x3e
 800219c:	687b      	ldr	r3, [r7, #4]
 800219e:	2201      	movs	r2, #1
 80021a0:	f883 203f 	strb.w	r2, [r3, #63]	@ 0x3f
 80021a4:	687b      	ldr	r3, [r7, #4]
 80021a6:	2201      	movs	r2, #1
 80021a8:	f883 2040 	strb.w	r2, [r3, #64]	@ 0x40
 80021ac:	687b      	ldr	r3, [r7, #4]
 80021ae:	2201      	movs	r2, #1
 80021b0:	f883 2041 	strb.w	r2, [r3, #65]	@ 0x41
  TIM_CHANNEL_N_STATE_SET_ALL(htim, HAL_TIM_CHANNEL_STATE_READY);
 80021b4:	687b      	ldr	r3, [r7, #4]
 80021b6:	2201      	movs	r2, #1
 80021b8:	f883 2042 	strb.w	r2, [r3, #66]	@ 0x42
 80021bc:	687b      	ldr	r3, [r7, #4]
 80021be:	2201      	movs	r2, #1
 80021c0:	f883 2043 	strb.w	r2, [r3, #67]	@ 0x43
 80021c4:	687b      	ldr	r3, [r7, #4]
 80021c6:	2201      	movs	r2, #1
 80021c8:	f883 2044 	strb.w	r2, [r3, #68]	@ 0x44
 80021cc:	687b      	ldr	r3, [r7, #4]
 80021ce:	2201      	movs	r2, #1
 80021d0:	f883 2045 	strb.w	r2, [r3, #69]	@ 0x45

  /* Initialize the TIM state*/
  htim->State = HAL_TIM_STATE_READY;
 80021d4:	687b      	ldr	r3, [r7, #4]
 80021d6:	2201      	movs	r2, #1
 80021d8:	f883 203d 	strb.w	r2, [r3, #61]	@ 0x3d

  return HAL_OK;
 80021dc:	2300      	movs	r3, #0
}
 80021de:	4618      	mov	r0, r3
 80021e0:	3708      	adds	r7, #8
 80021e2:	46bd      	mov	sp, r7
 80021e4:	bd80      	pop	{r7, pc}

080021e6 <HAL_TIM_PWM_Init>:
  *         Ex: call @ref HAL_TIM_PWM_DeInit() before HAL_TIM_PWM_Init()
  * @param  htim TIM PWM handle
  * @retval HAL status
  */
HAL_StatusTypeDef HAL_TIM_PWM_Init(TIM_HandleTypeDef *htim)
{
 80021e6:	b580      	push	{r7, lr}
 80021e8:	b082      	sub	sp, #8
 80021ea:	af00      	add	r7, sp, #0
 80021ec:	6078      	str	r0, [r7, #4]
  /* Check the TIM handle allocation */
  if (htim == NULL)
 80021ee:	687b      	ldr	r3, [r7, #4]
 80021f0:	2b00      	cmp	r3, #0
 80021f2:	d101      	bne.n	80021f8 <HAL_TIM_PWM_Init+0x12>
  {
    return HAL_ERROR;
 80021f4:	2301      	movs	r3, #1
 80021f6:	e041      	b.n	800227c <HAL_TIM_PWM_Init+0x96>
  assert_param(IS_TIM_COUNTER_MODE(htim->Init.CounterMode));
  assert_param(IS_TIM_CLOCKDIVISION_DIV(htim->Init.ClockDivision));
  assert_param(IS_TIM_PERIOD(htim, htim->Init.Period));
  assert_param(IS_TIM_AUTORELOAD_PRELOAD(htim->Init.AutoReloadPreload));

  if (htim->State == HAL_TIM_STATE_RESET)
 80021f8:	687b      	ldr	r3, [r7, #4]
 80021fa:	f893 303d 	ldrb.w	r3, [r3, #61]	@ 0x3d
 80021fe:	b2db      	uxtb	r3, r3
 8002200:	2b00      	cmp	r3, #0
 8002202:	d106      	bne.n	8002212 <HAL_TIM_PWM_Init+0x2c>
  {
    /* Allocate lock resource and initialize it */
    htim->Lock = HAL_UNLOCKED;
 8002204:	687b      	ldr	r3, [r7, #4]
 8002206:	2200      	movs	r2, #0
 8002208:	f883 203c 	strb.w	r2, [r3, #60]	@ 0x3c
    }
    /* Init the low level hardware : GPIO, CLOCK, NVIC */
    htim->PWM_MspInitCallback(htim);
#else
    /* Init the low level hardware : GPIO, CLOCK, NVIC and DMA */
    HAL_TIM_PWM_MspInit(htim);
 800220c:	6878      	ldr	r0, [r7, #4]
 800220e:	f000 f839 	bl	8002284 <HAL_TIM_PWM_MspInit>
#endif /* USE_HAL_TIM_REGISTER_CALLBACKS */
  }

  /* Set the TIM state */
  htim->State = HAL_TIM_STATE_BUSY;
 8002212:	687b      	ldr	r3, [r7, #4]
 8002214:	2202      	movs	r2, #2
 8002216:	f883 203d 	strb.w	r2, [r3, #61]	@ 0x3d

  /* Init the base time for the PWM */
  TIM_Base_SetConfig(htim->Instance, &htim->Init);
 800221a:	687b      	ldr	r3, [r7, #4]
 800221c:	681a      	ldr	r2, [r3, #0]
 800221e:	687b      	ldr	r3, [r7, #4]
 8002220:	3304      	adds	r3, #4
 8002222:	4619      	mov	r1, r3
 8002224:	4610      	mov	r0, r2
 8002226:	f000 fd25 	bl	8002c74 <TIM_Base_SetConfig>

  /* Initialize the DMA burst operation state */
  htim->DMABurstState = HAL_DMA_BURST_STATE_READY;
 800222a:	687b      	ldr	r3, [r7, #4]
 800222c:	2201      	movs	r2, #1
 800222e:	f883 2046 	strb.w	r2, [r3, #70]	@ 0x46

  /* Initialize the TIM channels state */
  TIM_CHANNEL_STATE_SET_ALL(htim, HAL_TIM_CHANNEL_STATE_READY);
 8002232:	687b      	ldr	r3, [r7, #4]
 8002234:	2201      	movs	r2, #1
 8002236:	f883 203e 	strb.w	r2, [r3, #62]	@ 0x3e
 800223a:	687b      	ldr	r3, [r7, #4]
 800223c:	2201      	movs	r2, #1
 800223e:	f883 203f 	strb.w	r2, [r3, #63]	@ 0x3f
 8002242:	687b      	ldr	r3, [r7, #4]
 8002244:	2201      	movs	r2, #1
 8002246:	f883 2040 	strb.w	r2, [r3, #64]	@ 0x40
 800224a:	687b      	ldr	r3, [r7, #4]
 800224c:	2201      	movs	r2, #1
 800224e:	f883 2041 	strb.w	r2, [r3, #65]	@ 0x41
  TIM_CHANNEL_N_STATE_SET_ALL(htim, HAL_TIM_CHANNEL_STATE_READY);
 8002252:	687b      	ldr	r3, [r7, #4]
 8002254:	2201      	movs	r2, #1
 8002256:	f883 2042 	strb.w	r2, [r3, #66]	@ 0x42
 800225a:	687b      	ldr	r3, [r7, #4]
 800225c:	2201      	movs	r2, #1
 800225e:	f883 2043 	strb.w	r2, [r3, #67]	@ 0x43
 8002262:	687b      	ldr	r3, [r7, #4]
 8002264:	2201      	movs	r2, #1
 8002266:	f883 2044 	strb.w	r2, [r3, #68]	@ 0x44
 800226a:	687b      	ldr	r3, [r7, #4]
 800226c:	2201      	movs	r2, #1
 800226e:	f883 2045 	strb.w	r2, [r3, #69]	@ 0x45

  /* Initialize the TIM state*/
  htim->State = HAL_TIM_STATE_READY;
 8002272:	687b      	ldr	r3, [r7, #4]
 8002274:	2201      	movs	r2, #1
 8002276:	f883 203d 	strb.w	r2, [r3, #61]	@ 0x3d

  return HAL_OK;
 800227a:	2300      	movs	r3, #0
}
 800227c:	4618      	mov	r0, r3
 800227e:	3708      	adds	r7, #8
 8002280:	46bd      	mov	sp, r7
 8002282:	bd80      	pop	{r7, pc}

08002284 <HAL_TIM_PWM_MspInit>:
  * @brief  Initializes the TIM PWM MSP.
  * @param  htim TIM PWM handle
  * @retval None
  */
__weak void HAL_TIM_PWM_MspInit(TIM_HandleTypeDef *htim)
{
 8002284:	b480      	push	{r7}
 8002286:	b083      	sub	sp, #12
 8002288:	af00      	add	r7, sp, #0
 800228a:	6078      	str	r0, [r7, #4]
  UNUSED(htim);

  /* NOTE : This function should not be modified, when the callback is needed,
            the HAL_TIM_PWM_MspInit could be implemented in the user file
   */
}
 800228c:	bf00      	nop
 800228e:	370c      	adds	r7, #12
 8002290:	46bd      	mov	sp, r7
 8002292:	f85d 7b04 	ldr.w	r7, [sp], #4
 8002296:	4770      	bx	lr

08002298 <HAL_TIM_PWM_Start>:
  *            @arg TIM_CHANNEL_3: TIM Channel 3 selected
  *            @arg TIM_CHANNEL_4: TIM Channel 4 selected
  * @retval HAL status
  */
HAL_StatusTypeDef HAL_TIM_PWM_Start(TIM_HandleTypeDef *htim, uint32_t Channel)
{
 8002298:	b580      	push	{r7, lr}
 800229a:	b084      	sub	sp, #16
 800229c:	af00      	add	r7, sp, #0
 800229e:	6078      	str	r0, [r7, #4]
 80022a0:	6039      	str	r1, [r7, #0]

  /* Check the parameters */
  assert_param(IS_TIM_CCX_INSTANCE(htim->Instance, Channel));

  /* Check the TIM channel state */
  if (TIM_CHANNEL_STATE_GET(htim, Channel) != HAL_TIM_CHANNEL_STATE_READY)
 80022a2:	683b      	ldr	r3, [r7, #0]
 80022a4:	2b00      	cmp	r3, #0
 80022a6:	d109      	bne.n	80022bc <HAL_TIM_PWM_Start+0x24>
 80022a8:	687b      	ldr	r3, [r7, #4]
 80022aa:	f893 303e 	ldrb.w	r3, [r3, #62]	@ 0x3e
 80022ae:	b2db      	uxtb	r3, r3
 80022b0:	2b01      	cmp	r3, #1
 80022b2:	bf14      	ite	ne
 80022b4:	2301      	movne	r3, #1
 80022b6:	2300      	moveq	r3, #0
 80022b8:	b2db      	uxtb	r3, r3
 80022ba:	e022      	b.n	8002302 <HAL_TIM_PWM_Start+0x6a>
 80022bc:	683b      	ldr	r3, [r7, #0]
 80022be:	2b04      	cmp	r3, #4
 80022c0:	d109      	bne.n	80022d6 <HAL_TIM_PWM_Start+0x3e>
 80022c2:	687b      	ldr	r3, [r7, #4]
 80022c4:	f893 303f 	ldrb.w	r3, [r3, #63]	@ 0x3f
 80022c8:	b2db      	uxtb	r3, r3
 80022ca:	2b01      	cmp	r3, #1
 80022cc:	bf14      	ite	ne
 80022ce:	2301      	movne	r3, #1
 80022d0:	2300      	moveq	r3, #0
 80022d2:	b2db      	uxtb	r3, r3
 80022d4:	e015      	b.n	8002302 <HAL_TIM_PWM_Start+0x6a>
 80022d6:	683b      	ldr	r3, [r7, #0]
 80022d8:	2b08      	cmp	r3, #8
 80022da:	d109      	bne.n	80022f0 <HAL_TIM_PWM_Start+0x58>
 80022dc:	687b      	ldr	r3, [r7, #4]
 80022de:	f893 3040 	ldrb.w	r3, [r3, #64]	@ 0x40
 80022e2:	b2db      	uxtb	r3, r3
 80022e4:	2b01      	cmp	r3, #1
 80022e6:	bf14      	ite	ne
 80022e8:	2301      	movne	r3, #1
 80022ea:	2300      	moveq	r3, #0
 80022ec:	b2db      	uxtb	r3, r3
 80022ee:	e008      	b.n	8002302 <HAL_TIM_PWM_Start+0x6a>
 80022f0:	687b      	ldr	r3, [r7, #4]
 80022f2:	f893 3041 	ldrb.w	r3, [r3, #65]	@ 0x41
 80022f6:	b2db      	uxtb	r3, r3
 80022f8:	2b01      	cmp	r3, #1
 80022fa:	bf14      	ite	ne
 80022fc:	2301      	movne	r3, #1
 80022fe:	2300      	moveq	r3, #0
 8002300:	b2db      	uxtb	r3, r3
 8002302:	2b00      	cmp	r3, #0
 8002304:	d001      	beq.n	800230a <HAL_TIM_PWM_Start+0x72>
  {
    return HAL_ERROR;
 8002306:	2301      	movs	r3, #1
 8002308:	e068      	b.n	80023dc <HAL_TIM_PWM_Start+0x144>
  }

  /* Set the TIM channel state */
  TIM_CHANNEL_STATE_SET(htim, Channel, HAL_TIM_CHANNEL_STATE_BUSY);
 800230a:	683b      	ldr	r3, [r7, #0]
 800230c:	2b00      	cmp	r3, #0
 800230e:	d104      	bne.n	800231a <HAL_TIM_PWM_Start+0x82>
 8002310:	687b      	ldr	r3, [r7, #4]
 8002312:	2202      	movs	r2, #2
 8002314:	f883 203e 	strb.w	r2, [r3, #62]	@ 0x3e
 8002318:	e013      	b.n	8002342 <HAL_TIM_PWM_Start+0xaa>
 800231a:	683b      	ldr	r3, [r7, #0]
 800231c:	2b04      	cmp	r3, #4
 800231e:	d104      	bne.n	800232a <HAL_TIM_PWM_Start+0x92>
 8002320:	687b      	ldr	r3, [r7, #4]
 8002322:	2202      	movs	r2, #2
 8002324:	f883 203f 	strb.w	r2, [r3, #63]	@ 0x3f
 8002328:	e00b      	b.n	8002342 <HAL_TIM_PWM_Start+0xaa>
 800232a:	683b      	ldr	r3, [r7, #0]
 800232c:	2b08      	cmp	r3, #8
 800232e:	d104      	bne.n	800233a <HAL_TIM_PWM_Start+0xa2>
 8002330:	687b      	ldr	r3, [r7, #4]
 8002332:	2202      	movs	r2, #2
 8002334:	f883 2040 	strb.w	r2, [r3, #64]	@ 0x40
 8002338:	e003      	b.n	8002342 <HAL_TIM_PWM_Start+0xaa>
 800233a:	687b      	ldr	r3, [r7, #4]
 800233c:	2202      	movs	r2, #2
 800233e:	f883 2041 	strb.w	r2, [r3, #65]	@ 0x41

  /* Enable the Capture compare channel */
  TIM_CCxChannelCmd(htim->Instance, Channel, TIM_CCx_ENABLE);
 8002342:	687b      	ldr	r3, [r7, #4]
 8002344:	681b      	ldr	r3, [r3, #0]
 8002346:	2201      	movs	r2, #1
 8002348:	6839      	ldr	r1, [r7, #0]
 800234a:	4618      	mov	r0, r3
 800234c:	f000 ff44 	bl	80031d8 <TIM_CCxChannelCmd>

  if (IS_TIM_BREAK_INSTANCE(htim->Instance) != RESET)
 8002350:	687b      	ldr	r3, [r7, #4]
 8002352:	681b      	ldr	r3, [r3, #0]
 8002354:	4a23      	ldr	r2, [pc, #140]	@ (80023e4 <HAL_TIM_PWM_Start+0x14c>)
 8002356:	4293      	cmp	r3, r2
 8002358:	d107      	bne.n	800236a <HAL_TIM_PWM_Start+0xd2>
  {
    /* Enable the main output */
    __HAL_TIM_MOE_ENABLE(htim);
 800235a:	687b      	ldr	r3, [r7, #4]
 800235c:	681b      	ldr	r3, [r3, #0]
 800235e:	6c5a      	ldr	r2, [r3, #68]	@ 0x44
 8002360:	687b      	ldr	r3, [r7, #4]
 8002362:	681b      	ldr	r3, [r3, #0]
 8002364:	f442 4200 	orr.w	r2, r2, #32768	@ 0x8000
 8002368:	645a      	str	r2, [r3, #68]	@ 0x44
  }

  /* Enable the Peripheral, except in trigger mode where enable is automatically done with trigger */
  if (IS_TIM_SLAVE_INSTANCE(htim->Instance))
 800236a:	687b      	ldr	r3, [r7, #4]
 800236c:	681b      	ldr	r3, [r3, #0]
 800236e:	4a1d      	ldr	r2, [pc, #116]	@ (80023e4 <HAL_TIM_PWM_Start+0x14c>)
 8002370:	4293      	cmp	r3, r2
 8002372:	d018      	beq.n	80023a6 <HAL_TIM_PWM_Start+0x10e>
 8002374:	687b      	ldr	r3, [r7, #4]
 8002376:	681b      	ldr	r3, [r3, #0]
 8002378:	f1b3 4f80 	cmp.w	r3, #1073741824	@ 0x40000000
 800237c:	d013      	beq.n	80023a6 <HAL_TIM_PWM_Start+0x10e>
 800237e:	687b      	ldr	r3, [r7, #4]
 8002380:	681b      	ldr	r3, [r3, #0]
 8002382:	4a19      	ldr	r2, [pc, #100]	@ (80023e8 <HAL_TIM_PWM_Start+0x150>)
 8002384:	4293      	cmp	r3, r2
 8002386:	d00e      	beq.n	80023a6 <HAL_TIM_PWM_Start+0x10e>
 8002388:	687b      	ldr	r3, [r7, #4]
 800238a:	681b      	ldr	r3, [r3, #0]
 800238c:	4a17      	ldr	r2, [pc, #92]	@ (80023ec <HAL_TIM_PWM_Start+0x154>)
 800238e:	4293      	cmp	r3, r2
 8002390:	d009      	beq.n	80023a6 <HAL_TIM_PWM_Start+0x10e>
 8002392:	687b      	ldr	r3, [r7, #4]
 8002394:	681b      	ldr	r3, [r3, #0]
 8002396:	4a16      	ldr	r2, [pc, #88]	@ (80023f0 <HAL_TIM_PWM_Start+0x158>)
 8002398:	4293      	cmp	r3, r2
 800239a:	d004      	beq.n	80023a6 <HAL_TIM_PWM_Start+0x10e>
 800239c:	687b      	ldr	r3, [r7, #4]
 800239e:	681b      	ldr	r3, [r3, #0]
 80023a0:	4a14      	ldr	r2, [pc, #80]	@ (80023f4 <HAL_TIM_PWM_Start+0x15c>)
 80023a2:	4293      	cmp	r3, r2
 80023a4:	d111      	bne.n	80023ca <HAL_TIM_PWM_Start+0x132>
  {
    tmpsmcr = htim->Instance->SMCR & TIM_SMCR_SMS;
 80023a6:	687b      	ldr	r3, [r7, #4]
 80023a8:	681b      	ldr	r3, [r3, #0]
 80023aa:	689b      	ldr	r3, [r3, #8]
 80023ac:	f003 0307 	and.w	r3, r3, #7
 80023b0:	60fb      	str	r3, [r7, #12]
    if (!IS_TIM_SLAVEMODE_TRIGGER_ENABLED(tmpsmcr))
 80023b2:	68fb      	ldr	r3, [r7, #12]
 80023b4:	2b06      	cmp	r3, #6
 80023b6:	d010      	beq.n	80023da <HAL_TIM_PWM_Start+0x142>
    {
      __HAL_TIM_ENABLE(htim);
 80023b8:	687b      	ldr	r3, [r7, #4]
 80023ba:	681b      	ldr	r3, [r3, #0]
 80023bc:	681a      	ldr	r2, [r3, #0]
 80023be:	687b      	ldr	r3, [r7, #4]
 80023c0:	681b      	ldr	r3, [r3, #0]
 80023c2:	f042 0201 	orr.w	r2, r2, #1
 80023c6:	601a      	str	r2, [r3, #0]
    if (!IS_TIM_SLAVEMODE_TRIGGER_ENABLED(tmpsmcr))
 80023c8:	e007      	b.n	80023da <HAL_TIM_PWM_Start+0x142>
    }
  }
  else
  {
    __HAL_TIM_ENABLE(htim);
 80023ca:	687b      	ldr	r3, [r7, #4]
 80023cc:	681b      	ldr	r3, [r3, #0]
 80023ce:	681a      	ldr	r2, [r3, #0]
 80023d0:	687b      	ldr	r3, [r7, #4]
 80023d2:	681b      	ldr	r3, [r3, #0]
 80023d4:	f042 0201 	orr.w	r2, r2, #1
 80023d8:	601a      	str	r2, [r3, #0]
  }

  /* Return function status */
  return HAL_OK;
 80023da:	2300      	movs	r3, #0
}
 80023dc:	4618      	mov	r0, r3
 80023de:	3710      	adds	r7, #16
 80023e0:	46bd      	mov	sp, r7
 80023e2:	bd80      	pop	{r7, pc}
 80023e4:	40010000 	.word	0x40010000
 80023e8:	40000400 	.word	0x40000400
 80023ec:	40000800 	.word	0x40000800
 80023f0:	40000c00 	.word	0x40000c00
 80023f4:	40014000 	.word	0x40014000

080023f8 <HAL_TIM_PWM_ConfigChannel>:
  * @retval HAL status
  */
HAL_StatusTypeDef HAL_TIM_PWM_ConfigChannel(TIM_HandleTypeDef *htim,
                                            const TIM_OC_InitTypeDef *sConfig,
                                            uint32_t Channel)
{
 80023f8:	b580      	push	{r7, lr}
 80023fa:	b086      	sub	sp, #24
 80023fc:	af00      	add	r7, sp, #0
 80023fe:	60f8      	str	r0, [r7, #12]
 8002400:	60b9      	str	r1, [r7, #8]
 8002402:	607a      	str	r2, [r7, #4]
  HAL_StatusTypeDef status = HAL_OK;
 8002404:	2300      	movs	r3, #0
 8002406:	75fb      	strb	r3, [r7, #23]
  assert_param(IS_TIM_PWM_MODE(sConfig->OCMode));
  assert_param(IS_TIM_OC_POLARITY(sConfig->OCPolarity));
  assert_param(IS_TIM_FAST_STATE(sConfig->OCFastMode));

  /* Process Locked */
  __HAL_LOCK(htim);
 8002408:	68fb      	ldr	r3, [r7, #12]
 800240a:	f893 303c 	ldrb.w	r3, [r3, #60]	@ 0x3c
 800240e:	2b01      	cmp	r3, #1
 8002410:	d101      	bne.n	8002416 <HAL_TIM_PWM_ConfigChannel+0x1e>
 8002412:	2302      	movs	r3, #2
 8002414:	e0ae      	b.n	8002574 <HAL_TIM_PWM_ConfigChannel+0x17c>
 8002416:	68fb      	ldr	r3, [r7, #12]
 8002418:	2201      	movs	r2, #1
 800241a:	f883 203c 	strb.w	r2, [r3, #60]	@ 0x3c

  switch (Channel)
 800241e:	687b      	ldr	r3, [r7, #4]
 8002420:	2b0c      	cmp	r3, #12
 8002422:	f200 809f 	bhi.w	8002564 <HAL_TIM_PWM_ConfigChannel+0x16c>
 8002426:	a201      	add	r2, pc, #4	@ (adr r2, 800242c <HAL_TIM_PWM_ConfigChannel+0x34>)
 8002428:	f852 f023 	ldr.w	pc, [r2, r3, lsl #2]
 800242c:	08002461 	.word	0x08002461
 8002430:	08002565 	.word	0x08002565
 8002434:	08002565 	.word	0x08002565
 8002438:	08002565 	.word	0x08002565
 800243c:	080024a1 	.word	0x080024a1
 8002440:	08002565 	.word	0x08002565
 8002444:	08002565 	.word	0x08002565
 8002448:	08002565 	.word	0x08002565
 800244c:	080024e3 	.word	0x080024e3
 8002450:	08002565 	.word	0x08002565
 8002454:	08002565 	.word	0x08002565
 8002458:	08002565 	.word	0x08002565
 800245c:	08002523 	.word	0x08002523
    {
      /* Check the parameters */
      assert_param(IS_TIM_CC1_INSTANCE(htim->Instance));

      /* Configure the Channel 1 in PWM mode */
      TIM_OC1_SetConfig(htim->Instance, sConfig);
 8002460:	68fb      	ldr	r3, [r7, #12]
 8002462:	681b      	ldr	r3, [r3, #0]
 8002464:	68b9      	ldr	r1, [r7, #8]
 8002466:	4618      	mov	r0, r3
 8002468:	f000 fc90 	bl	8002d8c <TIM_OC1_SetConfig>

      /* Set the Preload enable bit for channel1 */
      htim->Instance->CCMR1 |= TIM_CCMR1_OC1PE;
 800246c:	68fb      	ldr	r3, [r7, #12]
 800246e:	681b      	ldr	r3, [r3, #0]
 8002470:	699a      	ldr	r2, [r3, #24]
 8002472:	68fb      	ldr	r3, [r7, #12]
 8002474:	681b      	ldr	r3, [r3, #0]
 8002476:	f042 0208 	orr.w	r2, r2, #8
 800247a:	619a      	str	r2, [r3, #24]

      /* Configure the Output Fast mode */
      htim->Instance->CCMR1 &= ~TIM_CCMR1_OC1FE;
 800247c:	68fb      	ldr	r3, [r7, #12]
 800247e:	681b      	ldr	r3, [r3, #0]
 8002480:	699a      	ldr	r2, [r3, #24]
 8002482:	68fb      	ldr	r3, [r7, #12]
 8002484:	681b      	ldr	r3, [r3, #0]
 8002486:	f022 0204 	bic.w	r2, r2, #4
 800248a:	619a      	str	r2, [r3, #24]
      htim->Instance->CCMR1 |= sConfig->OCFastMode;
 800248c:	68fb      	ldr	r3, [r7, #12]
 800248e:	681b      	ldr	r3, [r3, #0]
 8002490:	6999      	ldr	r1, [r3, #24]
 8002492:	68bb      	ldr	r3, [r7, #8]
 8002494:	691a      	ldr	r2, [r3, #16]
 8002496:	68fb      	ldr	r3, [r7, #12]
 8002498:	681b      	ldr	r3, [r3, #0]
 800249a:	430a      	orrs	r2, r1
 800249c:	619a      	str	r2, [r3, #24]
      break;
 800249e:	e064      	b.n	800256a <HAL_TIM_PWM_ConfigChannel+0x172>
    {
      /* Check the parameters */
      assert_param(IS_TIM_CC2_INSTANCE(htim->Instance));

      /* Configure the Channel 2 in PWM mode */
      TIM_OC2_SetConfig(htim->Instance, sConfig);
 80024a0:	68fb      	ldr	r3, [r7, #12]
 80024a2:	681b      	ldr	r3, [r3, #0]
 80024a4:	68b9      	ldr	r1, [r7, #8]
 80024a6:	4618      	mov	r0, r3
 80024a8:	f000 fcd6 	bl	8002e58 <TIM_OC2_SetConfig>

      /* Set the Preload enable bit for channel2 */
      htim->Instance->CCMR1 |= TIM_CCMR1_OC2PE;
 80024ac:	68fb      	ldr	r3, [r7, #12]
 80024ae:	681b      	ldr	r3, [r3, #0]
 80024b0:	699a      	ldr	r2, [r3, #24]
 80024b2:	68fb      	ldr	r3, [r7, #12]
 80024b4:	681b      	ldr	r3, [r3, #0]
 80024b6:	f442 6200 	orr.w	r2, r2, #2048	@ 0x800
 80024ba:	619a      	str	r2, [r3, #24]

      /* Configure the Output Fast mode */
      htim->Instance->CCMR1 &= ~TIM_CCMR1_OC2FE;
 80024bc:	68fb      	ldr	r3, [r7, #12]
 80024be:	681b      	ldr	r3, [r3, #0]
 80024c0:	699a      	ldr	r2, [r3, #24]
 80024c2:	68fb      	ldr	r3, [r7, #12]
 80024c4:	681b      	ldr	r3, [r3, #0]
 80024c6:	f422 6280 	bic.w	r2, r2, #1024	@ 0x400
 80024ca:	619a      	str	r2, [r3, #24]
      htim->Instance->CCMR1 |= sConfig->OCFastMode << 8U;
 80024cc:	68fb      	ldr	r3, [r7, #12]
 80024ce:	681b      	ldr	r3, [r3, #0]
 80024d0:	6999      	ldr	r1, [r3, #24]
 80024d2:	68bb      	ldr	r3, [r7, #8]
 80024d4:	691b      	ldr	r3, [r3, #16]
 80024d6:	021a      	lsls	r2, r3, #8
 80024d8:	68fb      	ldr	r3, [r7, #12]
 80024da:	681b      	ldr	r3, [r3, #0]
 80024dc:	430a      	orrs	r2, r1
 80024de:	619a      	str	r2, [r3, #24]
      break;
 80024e0:	e043      	b.n	800256a <HAL_TIM_PWM_ConfigChannel+0x172>
    {
      /* Check the parameters */
      assert_param(IS_TIM_CC3_INSTANCE(htim->Instance));

      /* Configure the Channel 3 in PWM mode */
      TIM_OC3_SetConfig(htim->Instance, sConfig);
 80024e2:	68fb      	ldr	r3, [r7, #12]
 80024e4:	681b      	ldr	r3, [r3, #0]
 80024e6:	68b9      	ldr	r1, [r7, #8]
 80024e8:	4618      	mov	r0, r3
 80024ea:	f000 fd21 	bl	8002f30 <TIM_OC3_SetConfig>

      /* Set the Preload enable bit for channel3 */
      htim->Instance->CCMR2 |= TIM_CCMR2_OC3PE;
 80024ee:	68fb      	ldr	r3, [r7, #12]
 80024f0:	681b      	ldr	r3, [r3, #0]
 80024f2:	69da      	ldr	r2, [r3, #28]
 80024f4:	68fb      	ldr	r3, [r7, #12]
 80024f6:	681b      	ldr	r3, [r3, #0]
 80024f8:	f042 0208 	orr.w	r2, r2, #8
 80024fc:	61da      	str	r2, [r3, #28]

      /* Configure the Output Fast mode */
      htim->Instance->CCMR2 &= ~TIM_CCMR2_OC3FE;
 80024fe:	68fb      	ldr	r3, [r7, #12]
 8002500:	681b      	ldr	r3, [r3, #0]
 8002502:	69da      	ldr	r2, [r3, #28]
 8002504:	68fb      	ldr	r3, [r7, #12]
 8002506:	681b      	ldr	r3, [r3, #0]
 8002508:	f022 0204 	bic.w	r2, r2, #4
 800250c:	61da      	str	r2, [r3, #28]
      htim->Instance->CCMR2 |= sConfig->OCFastMode;
 800250e:	68fb      	ldr	r3, [r7, #12]
 8002510:	681b      	ldr	r3, [r3, #0]
 8002512:	69d9      	ldr	r1, [r3, #28]
 8002514:	68bb      	ldr	r3, [r7, #8]
 8002516:	691a      	ldr	r2, [r3, #16]
 8002518:	68fb      	ldr	r3, [r7, #12]
 800251a:	681b      	ldr	r3, [r3, #0]
 800251c:	430a      	orrs	r2, r1
 800251e:	61da      	str	r2, [r3, #28]
      break;
 8002520:	e023      	b.n	800256a <HAL_TIM_PWM_ConfigChannel+0x172>
    {
      /* Check the parameters */
      assert_param(IS_TIM_CC4_INSTANCE(htim->Instance));

      /* Configure the Channel 4 in PWM mode */
      TIM_OC4_SetConfig(htim->Instance, sConfig);
 8002522:	68fb      	ldr	r3, [r7, #12]
 8002524:	681b      	ldr	r3, [r3, #0]
 8002526:	68b9      	ldr	r1, [r7, #8]
 8002528:	4618      	mov	r0, r3
 800252a:	f000 fd6b 	bl	8003004 <TIM_OC4_SetConfig>

      /* Set the Preload enable bit for channel4 */
      htim->Instance->CCMR2 |= TIM_CCMR2_OC4PE;
 800252e:	68fb      	ldr	r3, [r7, #12]
 8002530:	681b      	ldr	r3, [r3, #0]
 8002532:	69da      	ldr	r2, [r3, #28]
 8002534:	68fb      	ldr	r3, [r7, #12]
 8002536:	681b      	ldr	r3, [r3, #0]
 8002538:	f442 6200 	orr.w	r2, r2, #2048	@ 0x800
 800253c:	61da      	str	r2, [r3, #28]

      /* Configure the Output Fast mode */
      htim->Instance->CCMR2 &= ~TIM_CCMR2_OC4FE;
 800253e:	68fb      	ldr	r3, [r7, #12]
 8002540:	681b      	ldr	r3, [r3, #0]
 8002542:	69da      	ldr	r2, [r3, #28]
 8002544:	68fb      	ldr	r3, [r7, #12]
 8002546:	681b      	ldr	r3, [r3, #0]
 8002548:	f422 6280 	bic.w	r2, r2, #1024	@ 0x400
 800254c:	61da      	str	r2, [r3, #28]
      htim->Instance->CCMR2 |= sConfig->OCFastMode << 8U;
 800254e:	68fb      	ldr	r3, [r7, #12]
 8002550:	681b      	ldr	r3, [r3, #0]
 8002552:	69d9      	ldr	r1, [r3, #28]
 8002554:	68bb      	ldr	r3, [r7, #8]
 8002556:	691b      	ldr	r3, [r3, #16]
 8002558:	021a      	lsls	r2, r3, #8
 800255a:	68fb      	ldr	r3, [r7, #12]
 800255c:	681b      	ldr	r3, [r3, #0]
 800255e:	430a      	orrs	r2, r1
 8002560:	61da      	str	r2, [r3, #28]
      break;
 8002562:	e002      	b.n	800256a <HAL_TIM_PWM_ConfigChannel+0x172>
    }

    default:
      status = HAL_ERROR;
 8002564:	2301      	movs	r3, #1
 8002566:	75fb      	strb	r3, [r7, #23]
      break;
 8002568:	bf00      	nop
  }

  __HAL_UNLOCK(htim);
 800256a:	68fb      	ldr	r3, [r7, #12]
 800256c:	2200      	movs	r2, #0
 800256e:	f883 203c 	strb.w	r2, [r3, #60]	@ 0x3c

  return status;
 8002572:	7dfb      	ldrb	r3, [r7, #23]
}
 8002574:	4618      	mov	r0, r3
 8002576:	3718      	adds	r7, #24
 8002578:	46bd      	mov	sp, r7
 800257a:	bd80      	pop	{r7, pc}

0800257c <HAL_TIM_DMABurst_MultiWriteStart>:
  * @retval HAL status
  */
HAL_StatusTypeDef HAL_TIM_DMABurst_MultiWriteStart(TIM_HandleTypeDef *htim, uint32_t BurstBaseAddress,
                                                   uint32_t BurstRequestSrc, const uint32_t *BurstBuffer,
                                                   uint32_t  BurstLength,  uint32_t  DataLength)
{
 800257c:	b580      	push	{r7, lr}
 800257e:	b086      	sub	sp, #24
 8002580:	af00      	add	r7, sp, #0
 8002582:	60f8      	str	r0, [r7, #12]
 8002584:	60b9      	str	r1, [r7, #8]
 8002586:	607a      	str	r2, [r7, #4]
 8002588:	603b      	str	r3, [r7, #0]
  HAL_StatusTypeDef status = HAL_OK;
 800258a:	2300      	movs	r3, #0
 800258c:	75fb      	strb	r3, [r7, #23]
  assert_param(IS_TIM_DMA_BASE(BurstBaseAddress));
  assert_param(IS_TIM_DMA_SOURCE(BurstRequestSrc));
  assert_param(IS_TIM_DMA_LENGTH(BurstLength));
  assert_param(IS_TIM_DMA_DATA_LENGTH(DataLength));

  if (htim->DMABurstState == HAL_DMA_BURST_STATE_BUSY)
 800258e:	68fb      	ldr	r3, [r7, #12]
 8002590:	f893 3046 	ldrb.w	r3, [r3, #70]	@ 0x46
 8002594:	b2db      	uxtb	r3, r3
 8002596:	2b02      	cmp	r3, #2
 8002598:	d101      	bne.n	800259e <HAL_TIM_DMABurst_MultiWriteStart+0x22>
  {
    return HAL_BUSY;
 800259a:	2302      	movs	r3, #2
 800259c:	e12b      	b.n	80027f6 <HAL_TIM_DMABurst_MultiWriteStart+0x27a>
  }
  else if (htim->DMABurstState == HAL_DMA_BURST_STATE_READY)
 800259e:	68fb      	ldr	r3, [r7, #12]
 80025a0:	f893 3046 	ldrb.w	r3, [r3, #70]	@ 0x46
 80025a4:	b2db      	uxtb	r3, r3
 80025a6:	2b01      	cmp	r3, #1
 80025a8:	d10b      	bne.n	80025c2 <HAL_TIM_DMABurst_MultiWriteStart+0x46>
  {
    if ((BurstBuffer == NULL) && (BurstLength > 0U))
 80025aa:	683b      	ldr	r3, [r7, #0]
 80025ac:	2b00      	cmp	r3, #0
 80025ae:	d104      	bne.n	80025ba <HAL_TIM_DMABurst_MultiWriteStart+0x3e>
 80025b0:	6a3b      	ldr	r3, [r7, #32]
 80025b2:	2b00      	cmp	r3, #0
 80025b4:	d001      	beq.n	80025ba <HAL_TIM_DMABurst_MultiWriteStart+0x3e>
    {
      return HAL_ERROR;
 80025b6:	2301      	movs	r3, #1
 80025b8:	e11d      	b.n	80027f6 <HAL_TIM_DMABurst_MultiWriteStart+0x27a>
    }
    else
    {
      htim->DMABurstState = HAL_DMA_BURST_STATE_BUSY;
 80025ba:	68fb      	ldr	r3, [r7, #12]
 80025bc:	2202      	movs	r2, #2
 80025be:	f883 2046 	strb.w	r2, [r3, #70]	@ 0x46
  else
  {
    /* nothing to do */
  }

  switch (BurstRequestSrc)
 80025c2:	687b      	ldr	r3, [r7, #4]
 80025c4:	f5b3 4f80 	cmp.w	r3, #16384	@ 0x4000
 80025c8:	f000 80d8 	beq.w	800277c <HAL_TIM_DMABurst_MultiWriteStart+0x200>
 80025cc:	687b      	ldr	r3, [r7, #4]
 80025ce:	f5b3 4f80 	cmp.w	r3, #16384	@ 0x4000
 80025d2:	f200 80ee 	bhi.w	80027b2 <HAL_TIM_DMABurst_MultiWriteStart+0x236>
 80025d6:	687b      	ldr	r3, [r7, #4]
 80025d8:	f5b3 5f00 	cmp.w	r3, #8192	@ 0x2000
 80025dc:	f000 80b3 	beq.w	8002746 <HAL_TIM_DMABurst_MultiWriteStart+0x1ca>
 80025e0:	687b      	ldr	r3, [r7, #4]
 80025e2:	f5b3 5f00 	cmp.w	r3, #8192	@ 0x2000
 80025e6:	f200 80e4 	bhi.w	80027b2 <HAL_TIM_DMABurst_MultiWriteStart+0x236>
 80025ea:	687b      	ldr	r3, [r7, #4]
 80025ec:	f5b3 5f80 	cmp.w	r3, #4096	@ 0x1000
 80025f0:	f000 808e 	beq.w	8002710 <HAL_TIM_DMABurst_MultiWriteStart+0x194>
 80025f4:	687b      	ldr	r3, [r7, #4]
 80025f6:	f5b3 5f80 	cmp.w	r3, #4096	@ 0x1000
 80025fa:	f200 80da 	bhi.w	80027b2 <HAL_TIM_DMABurst_MultiWriteStart+0x236>
 80025fe:	687b      	ldr	r3, [r7, #4]
 8002600:	f5b3 6f00 	cmp.w	r3, #2048	@ 0x800
 8002604:	d069      	beq.n	80026da <HAL_TIM_DMABurst_MultiWriteStart+0x15e>
 8002606:	687b      	ldr	r3, [r7, #4]
 8002608:	f5b3 6f00 	cmp.w	r3, #2048	@ 0x800
 800260c:	f200 80d1 	bhi.w	80027b2 <HAL_TIM_DMABurst_MultiWriteStart+0x236>
 8002610:	687b      	ldr	r3, [r7, #4]
 8002612:	f5b3 6f80 	cmp.w	r3, #1024	@ 0x400
 8002616:	d045      	beq.n	80026a4 <HAL_TIM_DMABurst_MultiWriteStart+0x128>
 8002618:	687b      	ldr	r3, [r7, #4]
 800261a:	f5b3 6f80 	cmp.w	r3, #1024	@ 0x400
 800261e:	f200 80c8 	bhi.w	80027b2 <HAL_TIM_DMABurst_MultiWriteStart+0x236>
 8002622:	687b      	ldr	r3, [r7, #4]
 8002624:	f5b3 7f80 	cmp.w	r3, #256	@ 0x100
 8002628:	d004      	beq.n	8002634 <HAL_TIM_DMABurst_MultiWriteStart+0xb8>
 800262a:	687b      	ldr	r3, [r7, #4]
 800262c:	f5b3 7f00 	cmp.w	r3, #512	@ 0x200
 8002630:	d01c      	beq.n	800266c <HAL_TIM_DMABurst_MultiWriteStart+0xf0>
 8002632:	e0be      	b.n	80027b2 <HAL_TIM_DMABurst_MultiWriteStart+0x236>
  {
    case TIM_DMA_UPDATE:
    {
      /* Set the DMA Period elapsed callbacks */
      htim->hdma[TIM_DMA_ID_UPDATE]->XferCpltCallback = TIM_DMAPeriodElapsedCplt;
 8002634:	68fb      	ldr	r3, [r7, #12]
 8002636:	6a1b      	ldr	r3, [r3, #32]
 8002638:	4a71      	ldr	r2, [pc, #452]	@ (8002800 <HAL_TIM_DMABurst_MultiWriteStart+0x284>)
 800263a:	63da      	str	r2, [r3, #60]	@ 0x3c
      htim->hdma[TIM_DMA_ID_UPDATE]->XferHalfCpltCallback = TIM_DMAPeriodElapsedHalfCplt;
 800263c:	68fb      	ldr	r3, [r7, #12]
 800263e:	6a1b      	ldr	r3, [r3, #32]
 8002640:	4a70      	ldr	r2, [pc, #448]	@ (8002804 <HAL_TIM_DMABurst_MultiWriteStart+0x288>)
 8002642:	641a      	str	r2, [r3, #64]	@ 0x40

      /* Set the DMA error callback */
      htim->hdma[TIM_DMA_ID_UPDATE]->XferErrorCallback = TIM_DMAError ;
 8002644:	68fb      	ldr	r3, [r7, #12]
 8002646:	6a1b      	ldr	r3, [r3, #32]
 8002648:	4a6f      	ldr	r2, [pc, #444]	@ (8002808 <HAL_TIM_DMABurst_MultiWriteStart+0x28c>)
 800264a:	64da      	str	r2, [r3, #76]	@ 0x4c

      /* Enable the DMA stream */
      if (HAL_DMA_Start_IT(htim->hdma[TIM_DMA_ID_UPDATE], (uint32_t)BurstBuffer,
 800264c:	68fb      	ldr	r3, [r7, #12]
 800264e:	6a18      	ldr	r0, [r3, #32]
 8002650:	6839      	ldr	r1, [r7, #0]
                           (uint32_t)&htim->Instance->DMAR, DataLength) != HAL_OK)
 8002652:	68fb      	ldr	r3, [r7, #12]
 8002654:	681b      	ldr	r3, [r3, #0]
 8002656:	334c      	adds	r3, #76	@ 0x4c
      if (HAL_DMA_Start_IT(htim->hdma[TIM_DMA_ID_UPDATE], (uint32_t)BurstBuffer,
 8002658:	461a      	mov	r2, r3
 800265a:	6a7b      	ldr	r3, [r7, #36]	@ 0x24
 800265c:	f7fe fd0a 	bl	8001074 <HAL_DMA_Start_IT>
 8002660:	4603      	mov	r3, r0
 8002662:	2b00      	cmp	r3, #0
 8002664:	f000 80a8 	beq.w	80027b8 <HAL_TIM_DMABurst_MultiWriteStart+0x23c>
      {
        /* Return error status */
        return HAL_ERROR;
 8002668:	2301      	movs	r3, #1
 800266a:	e0c4      	b.n	80027f6 <HAL_TIM_DMABurst_MultiWriteStart+0x27a>
      break;
    }
    case TIM_DMA_CC1:
    {
      /* Set the DMA compare callbacks */
      htim->hdma[TIM_DMA_ID_CC1]->XferCpltCallback = TIM_DMADelayPulseCplt;
 800266c:	68fb      	ldr	r3, [r7, #12]
 800266e:	6a5b      	ldr	r3, [r3, #36]	@ 0x24
 8002670:	4a66      	ldr	r2, [pc, #408]	@ (800280c <HAL_TIM_DMABurst_MultiWriteStart+0x290>)
 8002672:	63da      	str	r2, [r3, #60]	@ 0x3c
      htim->hdma[TIM_DMA_ID_CC1]->XferHalfCpltCallback = TIM_DMADelayPulseHalfCplt;
 8002674:	68fb      	ldr	r3, [r7, #12]
 8002676:	6a5b      	ldr	r3, [r3, #36]	@ 0x24
 8002678:	4a65      	ldr	r2, [pc, #404]	@ (8002810 <HAL_TIM_DMABurst_MultiWriteStart+0x294>)
 800267a:	641a      	str	r2, [r3, #64]	@ 0x40

      /* Set the DMA error callback */
      htim->hdma[TIM_DMA_ID_CC1]->XferErrorCallback = TIM_DMAError ;
 800267c:	68fb      	ldr	r3, [r7, #12]
 800267e:	6a5b      	ldr	r3, [r3, #36]	@ 0x24
 8002680:	4a61      	ldr	r2, [pc, #388]	@ (8002808 <HAL_TIM_DMABurst_MultiWriteStart+0x28c>)
 8002682:	64da      	str	r2, [r3, #76]	@ 0x4c

      /* Enable the DMA stream */
      if (HAL_DMA_Start_IT(htim->hdma[TIM_DMA_ID_CC1], (uint32_t)BurstBuffer,
 8002684:	68fb      	ldr	r3, [r7, #12]
 8002686:	6a58      	ldr	r0, [r3, #36]	@ 0x24
 8002688:	6839      	ldr	r1, [r7, #0]
                           (uint32_t)&htim->Instance->DMAR, DataLength) != HAL_OK)
 800268a:	68fb      	ldr	r3, [r7, #12]
 800268c:	681b      	ldr	r3, [r3, #0]
 800268e:	334c      	adds	r3, #76	@ 0x4c
      if (HAL_DMA_Start_IT(htim->hdma[TIM_DMA_ID_CC1], (uint32_t)BurstBuffer,
 8002690:	461a      	mov	r2, r3
 8002692:	6a7b      	ldr	r3, [r7, #36]	@ 0x24
 8002694:	f7fe fcee 	bl	8001074 <HAL_DMA_Start_IT>
 8002698:	4603      	mov	r3, r0
 800269a:	2b00      	cmp	r3, #0
 800269c:	f000 808e 	beq.w	80027bc <HAL_TIM_DMABurst_MultiWriteStart+0x240>
      {
        /* Return error status */
        return HAL_ERROR;
 80026a0:	2301      	movs	r3, #1
 80026a2:	e0a8      	b.n	80027f6 <HAL_TIM_DMABurst_MultiWriteStart+0x27a>
      break;
    }
    case TIM_DMA_CC2:
    {
      /* Set the DMA compare callbacks */
      htim->hdma[TIM_DMA_ID_CC2]->XferCpltCallback = TIM_DMADelayPulseCplt;
 80026a4:	68fb      	ldr	r3, [r7, #12]
 80026a6:	6a9b      	ldr	r3, [r3, #40]	@ 0x28
 80026a8:	4a58      	ldr	r2, [pc, #352]	@ (800280c <HAL_TIM_DMABurst_MultiWriteStart+0x290>)
 80026aa:	63da      	str	r2, [r3, #60]	@ 0x3c
      htim->hdma[TIM_DMA_ID_CC2]->XferHalfCpltCallback = TIM_DMADelayPulseHalfCplt;
 80026ac:	68fb      	ldr	r3, [r7, #12]
 80026ae:	6a9b      	ldr	r3, [r3, #40]	@ 0x28
 80026b0:	4a57      	ldr	r2, [pc, #348]	@ (8002810 <HAL_TIM_DMABurst_MultiWriteStart+0x294>)
 80026b2:	641a      	str	r2, [r3, #64]	@ 0x40

      /* Set the DMA error callback */
      htim->hdma[TIM_DMA_ID_CC2]->XferErrorCallback = TIM_DMAError ;
 80026b4:	68fb      	ldr	r3, [r7, #12]
 80026b6:	6a9b      	ldr	r3, [r3, #40]	@ 0x28
 80026b8:	4a53      	ldr	r2, [pc, #332]	@ (8002808 <HAL_TIM_DMABurst_MultiWriteStart+0x28c>)
 80026ba:	64da      	str	r2, [r3, #76]	@ 0x4c

      /* Enable the DMA stream */
      if (HAL_DMA_Start_IT(htim->hdma[TIM_DMA_ID_CC2], (uint32_t)BurstBuffer,
 80026bc:	68fb      	ldr	r3, [r7, #12]
 80026be:	6a98      	ldr	r0, [r3, #40]	@ 0x28
 80026c0:	6839      	ldr	r1, [r7, #0]
                           (uint32_t)&htim->Instance->DMAR, DataLength) != HAL_OK)
 80026c2:	68fb      	ldr	r3, [r7, #12]
 80026c4:	681b      	ldr	r3, [r3, #0]
 80026c6:	334c      	adds	r3, #76	@ 0x4c
      if (HAL_DMA_Start_IT(htim->hdma[TIM_DMA_ID_CC2], (uint32_t)BurstBuffer,
 80026c8:	461a      	mov	r2, r3
 80026ca:	6a7b      	ldr	r3, [r7, #36]	@ 0x24
 80026cc:	f7fe fcd2 	bl	8001074 <HAL_DMA_Start_IT>
 80026d0:	4603      	mov	r3, r0
 80026d2:	2b00      	cmp	r3, #0
 80026d4:	d074      	beq.n	80027c0 <HAL_TIM_DMABurst_MultiWriteStart+0x244>
      {
        /* Return error status */
        return HAL_ERROR;
 80026d6:	2301      	movs	r3, #1
 80026d8:	e08d      	b.n	80027f6 <HAL_TIM_DMABurst_MultiWriteStart+0x27a>
      break;
    }
    case TIM_DMA_CC3:
    {
      /* Set the DMA compare callbacks */
      htim->hdma[TIM_DMA_ID_CC3]->XferCpltCallback = TIM_DMADelayPulseCplt;
 80026da:	68fb      	ldr	r3, [r7, #12]
 80026dc:	6adb      	ldr	r3, [r3, #44]	@ 0x2c
 80026de:	4a4b      	ldr	r2, [pc, #300]	@ (800280c <HAL_TIM_DMABurst_MultiWriteStart+0x290>)
 80026e0:	63da      	str	r2, [r3, #60]	@ 0x3c
      htim->hdma[TIM_DMA_ID_CC3]->XferHalfCpltCallback = TIM_DMADelayPulseHalfCplt;
 80026e2:	68fb      	ldr	r3, [r7, #12]
 80026e4:	6adb      	ldr	r3, [r3, #44]	@ 0x2c
 80026e6:	4a4a      	ldr	r2, [pc, #296]	@ (8002810 <HAL_TIM_DMABurst_MultiWriteStart+0x294>)
 80026e8:	641a      	str	r2, [r3, #64]	@ 0x40

      /* Set the DMA error callback */
      htim->hdma[TIM_DMA_ID_CC3]->XferErrorCallback = TIM_DMAError ;
 80026ea:	68fb      	ldr	r3, [r7, #12]
 80026ec:	6adb      	ldr	r3, [r3, #44]	@ 0x2c
 80026ee:	4a46      	ldr	r2, [pc, #280]	@ (8002808 <HAL_TIM_DMABurst_MultiWriteStart+0x28c>)
 80026f0:	64da      	str	r2, [r3, #76]	@ 0x4c

      /* Enable the DMA stream */
      if (HAL_DMA_Start_IT(htim->hdma[TIM_DMA_ID_CC3], (uint32_t)BurstBuffer,
 80026f2:	68fb      	ldr	r3, [r7, #12]
 80026f4:	6ad8      	ldr	r0, [r3, #44]	@ 0x2c
 80026f6:	6839      	ldr	r1, [r7, #0]
                           (uint32_t)&htim->Instance->DMAR, DataLength) != HAL_OK)
 80026f8:	68fb      	ldr	r3, [r7, #12]
 80026fa:	681b      	ldr	r3, [r3, #0]
 80026fc:	334c      	adds	r3, #76	@ 0x4c
      if (HAL_DMA_Start_IT(htim->hdma[TIM_DMA_ID_CC3], (uint32_t)BurstBuffer,
 80026fe:	461a      	mov	r2, r3
 8002700:	6a7b      	ldr	r3, [r7, #36]	@ 0x24
 8002702:	f7fe fcb7 	bl	8001074 <HAL_DMA_Start_IT>
 8002706:	4603      	mov	r3, r0
 8002708:	2b00      	cmp	r3, #0
 800270a:	d05b      	beq.n	80027c4 <HAL_TIM_DMABurst_MultiWriteStart+0x248>
      {
        /* Return error status */
        return HAL_ERROR;
 800270c:	2301      	movs	r3, #1
 800270e:	e072      	b.n	80027f6 <HAL_TIM_DMABurst_MultiWriteStart+0x27a>
      break;
    }
    case TIM_DMA_CC4:
    {
      /* Set the DMA compare callbacks */
      htim->hdma[TIM_DMA_ID_CC4]->XferCpltCallback = TIM_DMADelayPulseCplt;
 8002710:	68fb      	ldr	r3, [r7, #12]
 8002712:	6b1b      	ldr	r3, [r3, #48]	@ 0x30
 8002714:	4a3d      	ldr	r2, [pc, #244]	@ (800280c <HAL_TIM_DMABurst_MultiWriteStart+0x290>)
 8002716:	63da      	str	r2, [r3, #60]	@ 0x3c
      htim->hdma[TIM_DMA_ID_CC4]->XferHalfCpltCallback = TIM_DMADelayPulseHalfCplt;
 8002718:	68fb      	ldr	r3, [r7, #12]
 800271a:	6b1b      	ldr	r3, [r3, #48]	@ 0x30
 800271c:	4a3c      	ldr	r2, [pc, #240]	@ (8002810 <HAL_TIM_DMABurst_MultiWriteStart+0x294>)
 800271e:	641a      	str	r2, [r3, #64]	@ 0x40

      /* Set the DMA error callback */
      htim->hdma[TIM_DMA_ID_CC4]->XferErrorCallback = TIM_DMAError ;
 8002720:	68fb      	ldr	r3, [r7, #12]
 8002722:	6b1b      	ldr	r3, [r3, #48]	@ 0x30
 8002724:	4a38      	ldr	r2, [pc, #224]	@ (8002808 <HAL_TIM_DMABurst_MultiWriteStart+0x28c>)
 8002726:	64da      	str	r2, [r3, #76]	@ 0x4c

      /* Enable the DMA stream */
      if (HAL_DMA_Start_IT(htim->hdma[TIM_DMA_ID_CC4], (uint32_t)BurstBuffer,
 8002728:	68fb      	ldr	r3, [r7, #12]
 800272a:	6b18      	ldr	r0, [r3, #48]	@ 0x30
 800272c:	6839      	ldr	r1, [r7, #0]
                           (uint32_t)&htim->Instance->DMAR, DataLength) != HAL_OK)
 800272e:	68fb      	ldr	r3, [r7, #12]
 8002730:	681b      	ldr	r3, [r3, #0]
 8002732:	334c      	adds	r3, #76	@ 0x4c
      if (HAL_DMA_Start_IT(htim->hdma[TIM_DMA_ID_CC4], (uint32_t)BurstBuffer,
 8002734:	461a      	mov	r2, r3
 8002736:	6a7b      	ldr	r3, [r7, #36]	@ 0x24
 8002738:	f7fe fc9c 	bl	8001074 <HAL_DMA_Start_IT>
 800273c:	4603      	mov	r3, r0
 800273e:	2b00      	cmp	r3, #0
 8002740:	d042      	beq.n	80027c8 <HAL_TIM_DMABurst_MultiWriteStart+0x24c>
      {
        /* Return error status */
        return HAL_ERROR;
 8002742:	2301      	movs	r3, #1
 8002744:	e057      	b.n	80027f6 <HAL_TIM_DMABurst_MultiWriteStart+0x27a>
      break;
    }
    case TIM_DMA_COM:
    {
      /* Set the DMA commutation callbacks */
      htim->hdma[TIM_DMA_ID_COMMUTATION]->XferCpltCallback =  TIMEx_DMACommutationCplt;
 8002746:	68fb      	ldr	r3, [r7, #12]
 8002748:	6b5b      	ldr	r3, [r3, #52]	@ 0x34
 800274a:	4a32      	ldr	r2, [pc, #200]	@ (8002814 <HAL_TIM_DMABurst_MultiWriteStart+0x298>)
 800274c:	63da      	str	r2, [r3, #60]	@ 0x3c
      htim->hdma[TIM_DMA_ID_COMMUTATION]->XferHalfCpltCallback =  TIMEx_DMACommutationHalfCplt;
 800274e:	68fb      	ldr	r3, [r7, #12]
 8002750:	6b5b      	ldr	r3, [r3, #52]	@ 0x34
 8002752:	4a31      	ldr	r2, [pc, #196]	@ (8002818 <HAL_TIM_DMABurst_MultiWriteStart+0x29c>)
 8002754:	641a      	str	r2, [r3, #64]	@ 0x40

      /* Set the DMA error callback */
      htim->hdma[TIM_DMA_ID_COMMUTATION]->XferErrorCallback = TIM_DMAError ;
 8002756:	68fb      	ldr	r3, [r7, #12]
 8002758:	6b5b      	ldr	r3, [r3, #52]	@ 0x34
 800275a:	4a2b      	ldr	r2, [pc, #172]	@ (8002808 <HAL_TIM_DMABurst_MultiWriteStart+0x28c>)
 800275c:	64da      	str	r2, [r3, #76]	@ 0x4c

      /* Enable the DMA stream */
      if (HAL_DMA_Start_IT(htim->hdma[TIM_DMA_ID_COMMUTATION], (uint32_t)BurstBuffer,
 800275e:	68fb      	ldr	r3, [r7, #12]
 8002760:	6b58      	ldr	r0, [r3, #52]	@ 0x34
 8002762:	6839      	ldr	r1, [r7, #0]
                           (uint32_t)&htim->Instance->DMAR, DataLength) != HAL_OK)
 8002764:	68fb      	ldr	r3, [r7, #12]
 8002766:	681b      	ldr	r3, [r3, #0]
 8002768:	334c      	adds	r3, #76	@ 0x4c
      if (HAL_DMA_Start_IT(htim->hdma[TIM_DMA_ID_COMMUTATION], (uint32_t)BurstBuffer,
 800276a:	461a      	mov	r2, r3
 800276c:	6a7b      	ldr	r3, [r7, #36]	@ 0x24
 800276e:	f7fe fc81 	bl	8001074 <HAL_DMA_Start_IT>
 8002772:	4603      	mov	r3, r0
 8002774:	2b00      	cmp	r3, #0
 8002776:	d029      	beq.n	80027cc <HAL_TIM_DMABurst_MultiWriteStart+0x250>
      {
        /* Return error status */
        return HAL_ERROR;
 8002778:	2301      	movs	r3, #1
 800277a:	e03c      	b.n	80027f6 <HAL_TIM_DMABurst_MultiWriteStart+0x27a>
      break;
    }
    case TIM_DMA_TRIGGER:
    {
      /* Set the DMA trigger callbacks */
      htim->hdma[TIM_DMA_ID_TRIGGER]->XferCpltCallback = TIM_DMATriggerCplt;
 800277c:	68fb      	ldr	r3, [r7, #12]
 800277e:	6b9b      	ldr	r3, [r3, #56]	@ 0x38
 8002780:	4a26      	ldr	r2, [pc, #152]	@ (800281c <HAL_TIM_DMABurst_MultiWriteStart+0x2a0>)
 8002782:	63da      	str	r2, [r3, #60]	@ 0x3c
      htim->hdma[TIM_DMA_ID_TRIGGER]->XferHalfCpltCallback = TIM_DMATriggerHalfCplt;
 8002784:	68fb      	ldr	r3, [r7, #12]
 8002786:	6b9b      	ldr	r3, [r3, #56]	@ 0x38
 8002788:	4a25      	ldr	r2, [pc, #148]	@ (8002820 <HAL_TIM_DMABurst_MultiWriteStart+0x2a4>)
 800278a:	641a      	str	r2, [r3, #64]	@ 0x40

      /* Set the DMA error callback */
      htim->hdma[TIM_DMA_ID_TRIGGER]->XferErrorCallback = TIM_DMAError ;
 800278c:	68fb      	ldr	r3, [r7, #12]
 800278e:	6b9b      	ldr	r3, [r3, #56]	@ 0x38
 8002790:	4a1d      	ldr	r2, [pc, #116]	@ (8002808 <HAL_TIM_DMABurst_MultiWriteStart+0x28c>)
 8002792:	64da      	str	r2, [r3, #76]	@ 0x4c

      /* Enable the DMA stream */
      if (HAL_DMA_Start_IT(htim->hdma[TIM_DMA_ID_TRIGGER], (uint32_t)BurstBuffer,
 8002794:	68fb      	ldr	r3, [r7, #12]
 8002796:	6b98      	ldr	r0, [r3, #56]	@ 0x38
 8002798:	6839      	ldr	r1, [r7, #0]
                           (uint32_t)&htim->Instance->DMAR, DataLength) != HAL_OK)
 800279a:	68fb      	ldr	r3, [r7, #12]
 800279c:	681b      	ldr	r3, [r3, #0]
 800279e:	334c      	adds	r3, #76	@ 0x4c
      if (HAL_DMA_Start_IT(htim->hdma[TIM_DMA_ID_TRIGGER], (uint32_t)BurstBuffer,
 80027a0:	461a      	mov	r2, r3
 80027a2:	6a7b      	ldr	r3, [r7, #36]	@ 0x24
 80027a4:	f7fe fc66 	bl	8001074 <HAL_DMA_Start_IT>
 80027a8:	4603      	mov	r3, r0
 80027aa:	2b00      	cmp	r3, #0
 80027ac:	d010      	beq.n	80027d0 <HAL_TIM_DMABurst_MultiWriteStart+0x254>
      {
        /* Return error status */
        return HAL_ERROR;
 80027ae:	2301      	movs	r3, #1
 80027b0:	e021      	b.n	80027f6 <HAL_TIM_DMABurst_MultiWriteStart+0x27a>
      }
      break;
    }
    default:
      status = HAL_ERROR;
 80027b2:	2301      	movs	r3, #1
 80027b4:	75fb      	strb	r3, [r7, #23]
      break;
 80027b6:	e00c      	b.n	80027d2 <HAL_TIM_DMABurst_MultiWriteStart+0x256>
      break;
 80027b8:	bf00      	nop
 80027ba:	e00a      	b.n	80027d2 <HAL_TIM_DMABurst_MultiWriteStart+0x256>
      break;
 80027bc:	bf00      	nop
 80027be:	e008      	b.n	80027d2 <HAL_TIM_DMABurst_MultiWriteStart+0x256>
      break;
 80027c0:	bf00      	nop
 80027c2:	e006      	b.n	80027d2 <HAL_TIM_DMABurst_MultiWriteStart+0x256>
      break;
 80027c4:	bf00      	nop
 80027c6:	e004      	b.n	80027d2 <HAL_TIM_DMABurst_MultiWriteStart+0x256>
      break;
 80027c8:	bf00      	nop
 80027ca:	e002      	b.n	80027d2 <HAL_TIM_DMABurst_MultiWriteStart+0x256>
      break;
 80027cc:	bf00      	nop
 80027ce:	e000      	b.n	80027d2 <HAL_TIM_DMABurst_MultiWriteStart+0x256>
      break;
 80027d0:	bf00      	nop
  }

  if (status == HAL_OK)
 80027d2:	7dfb      	ldrb	r3, [r7, #23]
 80027d4:	2b00      	cmp	r3, #0
 80027d6:	d10d      	bne.n	80027f4 <HAL_TIM_DMABurst_MultiWriteStart+0x278>
  {
    /* Configure the DMA Burst Mode */
    htim->Instance->DCR = (BurstBaseAddress | BurstLength);
 80027d8:	68fb      	ldr	r3, [r7, #12]
 80027da:	681b      	ldr	r3, [r3, #0]
 80027dc:	68b9      	ldr	r1, [r7, #8]
 80027de:	6a3a      	ldr	r2, [r7, #32]
 80027e0:	430a      	orrs	r2, r1
 80027e2:	649a      	str	r2, [r3, #72]	@ 0x48
    /* Enable the TIM DMA Request */
    __HAL_TIM_ENABLE_DMA(htim, BurstRequestSrc);
 80027e4:	68fb      	ldr	r3, [r7, #12]
 80027e6:	681b      	ldr	r3, [r3, #0]
 80027e8:	68d9      	ldr	r1, [r3, #12]
 80027ea:	68fb      	ldr	r3, [r7, #12]
 80027ec:	681b      	ldr	r3, [r3, #0]
 80027ee:	687a      	ldr	r2, [r7, #4]
 80027f0:	430a      	orrs	r2, r1
 80027f2:	60da      	str	r2, [r3, #12]
  }

  /* Return function status */
  return status;
 80027f4:	7dfb      	ldrb	r3, [r7, #23]
}
 80027f6:	4618      	mov	r0, r3
 80027f8:	3718      	adds	r7, #24
 80027fa:	46bd      	mov	sp, r7
 80027fc:	bd80      	pop	{r7, pc}
 80027fe:	bf00      	nop
 8002800:	08002be1 	.word	0x08002be1
 8002804:	08002c0f 	.word	0x08002c0f
 8002808:	08002a3f 	.word	0x08002a3f
 800280c:	08002ad1 	.word	0x08002ad1
 8002810:	08002b79 	.word	0x08002b79
 8002814:	080033cd 	.word	0x080033cd
 8002818:	080033f1 	.word	0x080033f1
 800281c:	08002c2b 	.word	0x08002c2b
 8002820:	08002c59 	.word	0x08002c59

08002824 <HAL_TIM_ConfigClockSource>:
  * @param  sClockSourceConfig pointer to a TIM_ClockConfigTypeDef structure that
  *         contains the clock source information for the TIM peripheral.
  * @retval HAL status
  */
HAL_StatusTypeDef HAL_TIM_ConfigClockSource(TIM_HandleTypeDef *htim, const TIM_ClockConfigTypeDef *sClockSourceConfig)
{
 8002824:	b580      	push	{r7, lr}
 8002826:	b084      	sub	sp, #16
 8002828:	af00      	add	r7, sp, #0
 800282a:	6078      	str	r0, [r7, #4]
 800282c:	6039      	str	r1, [r7, #0]
  HAL_StatusTypeDef status = HAL_OK;
 800282e:	2300      	movs	r3, #0
 8002830:	73fb      	strb	r3, [r7, #15]
  uint32_t tmpsmcr;

  /* Process Locked */
  __HAL_LOCK(htim);
 8002832:	687b      	ldr	r3, [r7, #4]
 8002834:	f893 303c 	ldrb.w	r3, [r3, #60]	@ 0x3c
 8002838:	2b01      	cmp	r3, #1
 800283a:	d101      	bne.n	8002840 <HAL_TIM_ConfigClockSource+0x1c>
 800283c:	2302      	movs	r3, #2
 800283e:	e0b4      	b.n	80029aa <HAL_TIM_ConfigClockSource+0x186>
 8002840:	687b      	ldr	r3, [r7, #4]
 8002842:	2201      	movs	r2, #1
 8002844:	f883 203c 	strb.w	r2, [r3, #60]	@ 0x3c

  htim->State = HAL_TIM_STATE_BUSY;
 8002848:	687b      	ldr	r3, [r7, #4]
 800284a:	2202      	movs	r2, #2
 800284c:	f883 203d 	strb.w	r2, [r3, #61]	@ 0x3d

  /* Check the parameters */
  assert_param(IS_TIM_CLOCKSOURCE(sClockSourceConfig->ClockSource));

  /* Reset the SMS, TS, ECE, ETPS and ETRF bits */
  tmpsmcr = htim->Instance->SMCR;
 8002850:	687b      	ldr	r3, [r7, #4]
 8002852:	681b      	ldr	r3, [r3, #0]
 8002854:	689b      	ldr	r3, [r3, #8]
 8002856:	60bb      	str	r3, [r7, #8]
  tmpsmcr &= ~(TIM_SMCR_SMS | TIM_SMCR_TS);
 8002858:	68bb      	ldr	r3, [r7, #8]
 800285a:	f023 0377 	bic.w	r3, r3, #119	@ 0x77
 800285e:	60bb      	str	r3, [r7, #8]
  tmpsmcr &= ~(TIM_SMCR_ETF | TIM_SMCR_ETPS | TIM_SMCR_ECE | TIM_SMCR_ETP);
 8002860:	68bb      	ldr	r3, [r7, #8]
 8002862:	f423 437f 	bic.w	r3, r3, #65280	@ 0xff00
 8002866:	60bb      	str	r3, [r7, #8]
  htim->Instance->SMCR = tmpsmcr;
 8002868:	687b      	ldr	r3, [r7, #4]
 800286a:	681b      	ldr	r3, [r3, #0]
 800286c:	68ba      	ldr	r2, [r7, #8]
 800286e:	609a      	str	r2, [r3, #8]

  switch (sClockSourceConfig->ClockSource)
 8002870:	683b      	ldr	r3, [r7, #0]
 8002872:	681b      	ldr	r3, [r3, #0]
 8002874:	f5b3 5f00 	cmp.w	r3, #8192	@ 0x2000
 8002878:	d03e      	beq.n	80028f8 <HAL_TIM_ConfigClockSource+0xd4>
 800287a:	f5b3 5f00 	cmp.w	r3, #8192	@ 0x2000
 800287e:	f200 8087 	bhi.w	8002990 <HAL_TIM_ConfigClockSource+0x16c>
 8002882:	f5b3 5f80 	cmp.w	r3, #4096	@ 0x1000
 8002886:	f000 8086 	beq.w	8002996 <HAL_TIM_ConfigClockSource+0x172>
 800288a:	f5b3 5f80 	cmp.w	r3, #4096	@ 0x1000
 800288e:	d87f      	bhi.n	8002990 <HAL_TIM_ConfigClockSource+0x16c>
 8002890:	2b70      	cmp	r3, #112	@ 0x70
 8002892:	d01a      	beq.n	80028ca <HAL_TIM_ConfigClockSource+0xa6>
 8002894:	2b70      	cmp	r3, #112	@ 0x70
 8002896:	d87b      	bhi.n	8002990 <HAL_TIM_ConfigClockSource+0x16c>
 8002898:	2b60      	cmp	r3, #96	@ 0x60
 800289a:	d050      	beq.n	800293e <HAL_TIM_ConfigClockSource+0x11a>
 800289c:	2b60      	cmp	r3, #96	@ 0x60
 800289e:	d877      	bhi.n	8002990 <HAL_TIM_ConfigClockSource+0x16c>
 80028a0:	2b50      	cmp	r3, #80	@ 0x50
 80028a2:	d03c      	beq.n	800291e <HAL_TIM_ConfigClockSource+0xfa>
 80028a4:	2b50      	cmp	r3, #80	@ 0x50
 80028a6:	d873      	bhi.n	8002990 <HAL_TIM_ConfigClockSource+0x16c>
 80028a8:	2b40      	cmp	r3, #64	@ 0x40
 80028aa:	d058      	beq.n	800295e <HAL_TIM_ConfigClockSource+0x13a>
 80028ac:	2b40      	cmp	r3, #64	@ 0x40
 80028ae:	d86f      	bhi.n	8002990 <HAL_TIM_ConfigClockSource+0x16c>
 80028b0:	2b30      	cmp	r3, #48	@ 0x30
 80028b2:	d064      	beq.n	800297e <HAL_TIM_ConfigClockSource+0x15a>
 80028b4:	2b30      	cmp	r3, #48	@ 0x30
 80028b6:	d86b      	bhi.n	8002990 <HAL_TIM_ConfigClockSource+0x16c>
 80028b8:	2b20      	cmp	r3, #32
 80028ba:	d060      	beq.n	800297e <HAL_TIM_ConfigClockSource+0x15a>
 80028bc:	2b20      	cmp	r3, #32
 80028be:	d867      	bhi.n	8002990 <HAL_TIM_ConfigClockSource+0x16c>
 80028c0:	2b00      	cmp	r3, #0
 80028c2:	d05c      	beq.n	800297e <HAL_TIM_ConfigClockSource+0x15a>
 80028c4:	2b10      	cmp	r3, #16
 80028c6:	d05a      	beq.n	800297e <HAL_TIM_ConfigClockSource+0x15a>
 80028c8:	e062      	b.n	8002990 <HAL_TIM_ConfigClockSource+0x16c>
      assert_param(IS_TIM_CLOCKPRESCALER(sClockSourceConfig->ClockPrescaler));
      assert_param(IS_TIM_CLOCKPOLARITY(sClockSourceConfig->ClockPolarity));
      assert_param(IS_TIM_CLOCKFILTER(sClockSourceConfig->ClockFilter));

      /* Configure the ETR Clock source */
      TIM_ETR_SetConfig(htim->Instance,
 80028ca:	687b      	ldr	r3, [r7, #4]
 80028cc:	6818      	ldr	r0, [r3, #0]
                        sClockSourceConfig->ClockPrescaler,
 80028ce:	683b      	ldr	r3, [r7, #0]
 80028d0:	6899      	ldr	r1, [r3, #8]
                        sClockSourceConfig->ClockPolarity,
 80028d2:	683b      	ldr	r3, [r7, #0]
 80028d4:	685a      	ldr	r2, [r3, #4]
                        sClockSourceConfig->ClockFilter);
 80028d6:	683b      	ldr	r3, [r7, #0]
 80028d8:	68db      	ldr	r3, [r3, #12]
      TIM_ETR_SetConfig(htim->Instance,
 80028da:	f000 fc5d 	bl	8003198 <TIM_ETR_SetConfig>

      /* Select the External clock mode1 and the ETRF trigger */
      tmpsmcr = htim->Instance->SMCR;
 80028de:	687b      	ldr	r3, [r7, #4]
 80028e0:	681b      	ldr	r3, [r3, #0]
 80028e2:	689b      	ldr	r3, [r3, #8]
 80028e4:	60bb      	str	r3, [r7, #8]
      tmpsmcr |= (TIM_SLAVEMODE_EXTERNAL1 | TIM_CLOCKSOURCE_ETRMODE1);
 80028e6:	68bb      	ldr	r3, [r7, #8]
 80028e8:	f043 0377 	orr.w	r3, r3, #119	@ 0x77
 80028ec:	60bb      	str	r3, [r7, #8]
      /* Write to TIMx SMCR */
      htim->Instance->SMCR = tmpsmcr;
 80028ee:	687b      	ldr	r3, [r7, #4]
 80028f0:	681b      	ldr	r3, [r3, #0]
 80028f2:	68ba      	ldr	r2, [r7, #8]
 80028f4:	609a      	str	r2, [r3, #8]
      break;
 80028f6:	e04f      	b.n	8002998 <HAL_TIM_ConfigClockSource+0x174>
      assert_param(IS_TIM_CLOCKPRESCALER(sClockSourceConfig->ClockPrescaler));
      assert_param(IS_TIM_CLOCKPOLARITY(sClockSourceConfig->ClockPolarity));
      assert_param(IS_TIM_CLOCKFILTER(sClockSourceConfig->ClockFilter));

      /* Configure the ETR Clock source */
      TIM_ETR_SetConfig(htim->Instance,
 80028f8:	687b      	ldr	r3, [r7, #4]
 80028fa:	6818      	ldr	r0, [r3, #0]
                        sClockSourceConfig->ClockPrescaler,
 80028fc:	683b      	ldr	r3, [r7, #0]
 80028fe:	6899      	ldr	r1, [r3, #8]
                        sClockSourceConfig->ClockPolarity,
 8002900:	683b      	ldr	r3, [r7, #0]
 8002902:	685a      	ldr	r2, [r3, #4]
                        sClockSourceConfig->ClockFilter);
 8002904:	683b      	ldr	r3, [r7, #0]
 8002906:	68db      	ldr	r3, [r3, #12]
      TIM_ETR_SetConfig(htim->Instance,
 8002908:	f000 fc46 	bl	8003198 <TIM_ETR_SetConfig>
      /* Enable the External clock mode2 */
      htim->Instance->SMCR |= TIM_SMCR_ECE;
 800290c:	687b      	ldr	r3, [r7, #4]
 800290e:	681b      	ldr	r3, [r3, #0]
 8002910:	689a      	ldr	r2, [r3, #8]
 8002912:	687b      	ldr	r3, [r7, #4]
 8002914:	681b      	ldr	r3, [r3, #0]
 8002916:	f442 4280 	orr.w	r2, r2, #16384	@ 0x4000
 800291a:	609a      	str	r2, [r3, #8]
      break;
 800291c:	e03c      	b.n	8002998 <HAL_TIM_ConfigClockSource+0x174>

      /* Check TI1 input conditioning related parameters */
      assert_param(IS_TIM_CLOCKPOLARITY(sClockSourceConfig->ClockPolarity));
      assert_param(IS_TIM_CLOCKFILTER(sClockSourceConfig->ClockFilter));

      TIM_TI1_ConfigInputStage(htim->Instance,
 800291e:	687b      	ldr	r3, [r7, #4]
 8002920:	6818      	ldr	r0, [r3, #0]
                               sClockSourceConfig->ClockPolarity,
 8002922:	683b      	ldr	r3, [r7, #0]
 8002924:	6859      	ldr	r1, [r3, #4]
                               sClockSourceConfig->ClockFilter);
 8002926:	683b      	ldr	r3, [r7, #0]
 8002928:	68db      	ldr	r3, [r3, #12]
      TIM_TI1_ConfigInputStage(htim->Instance,
 800292a:	461a      	mov	r2, r3
 800292c:	f000 fbba 	bl	80030a4 <TIM_TI1_ConfigInputStage>
      TIM_ITRx_SetConfig(htim->Instance, TIM_CLOCKSOURCE_TI1);
 8002930:	687b      	ldr	r3, [r7, #4]
 8002932:	681b      	ldr	r3, [r3, #0]
 8002934:	2150      	movs	r1, #80	@ 0x50
 8002936:	4618      	mov	r0, r3
 8002938:	f000 fc13 	bl	8003162 <TIM_ITRx_SetConfig>
      break;
 800293c:	e02c      	b.n	8002998 <HAL_TIM_ConfigClockSource+0x174>

      /* Check TI2 input conditioning related parameters */
      assert_param(IS_TIM_CLOCKPOLARITY(sClockSourceConfig->ClockPolarity));
      assert_param(IS_TIM_CLOCKFILTER(sClockSourceConfig->ClockFilter));

      TIM_TI2_ConfigInputStage(htim->Instance,
 800293e:	687b      	ldr	r3, [r7, #4]
 8002940:	6818      	ldr	r0, [r3, #0]
                               sClockSourceConfig->ClockPolarity,
 8002942:	683b      	ldr	r3, [r7, #0]
 8002944:	6859      	ldr	r1, [r3, #4]
                               sClockSourceConfig->ClockFilter);
 8002946:	683b      	ldr	r3, [r7, #0]
 8002948:	68db      	ldr	r3, [r3, #12]
      TIM_TI2_ConfigInputStage(htim->Instance,
 800294a:	461a      	mov	r2, r3
 800294c:	f000 fbd9 	bl	8003102 <TIM_TI2_ConfigInputStage>
      TIM_ITRx_SetConfig(htim->Instance, TIM_CLOCKSOURCE_TI2);
 8002950:	687b      	ldr	r3, [r7, #4]
 8002952:	681b      	ldr	r3, [r3, #0]
 8002954:	2160      	movs	r1, #96	@ 0x60
 8002956:	4618      	mov	r0, r3
 8002958:	f000 fc03 	bl	8003162 <TIM_ITRx_SetConfig>
      break;
 800295c:	e01c      	b.n	8002998 <HAL_TIM_ConfigClockSource+0x174>

      /* Check TI1 input conditioning related parameters */
      assert_param(IS_TIM_CLOCKPOLARITY(sClockSourceConfig->ClockPolarity));
      assert_param(IS_TIM_CLOCKFILTER(sClockSourceConfig->ClockFilter));

      TIM_TI1_ConfigInputStage(htim->Instance,
 800295e:	687b      	ldr	r3, [r7, #4]
 8002960:	6818      	ldr	r0, [r3, #0]
                               sClockSourceConfig->ClockPolarity,
 8002962:	683b      	ldr	r3, [r7, #0]
 8002964:	6859      	ldr	r1, [r3, #4]
                               sClockSourceConfig->ClockFilter);
 8002966:	683b      	ldr	r3, [r7, #0]
 8002968:	68db      	ldr	r3, [r3, #12]
      TIM_TI1_ConfigInputStage(htim->Instance,
 800296a:	461a      	mov	r2, r3
 800296c:	f000 fb9a 	bl	80030a4 <TIM_TI1_ConfigInputStage>
      TIM_ITRx_SetConfig(htim->Instance, TIM_CLOCKSOURCE_TI1ED);
 8002970:	687b      	ldr	r3, [r7, #4]
 8002972:	681b      	ldr	r3, [r3, #0]
 8002974:	2140      	movs	r1, #64	@ 0x40
 8002976:	4618      	mov	r0, r3
 8002978:	f000 fbf3 	bl	8003162 <TIM_ITRx_SetConfig>
      break;
 800297c:	e00c      	b.n	8002998 <HAL_TIM_ConfigClockSource+0x174>
    case TIM_CLOCKSOURCE_ITR3:
    {
      /* Check whether or not the timer instance supports internal trigger input */
      assert_param(IS_TIM_CLOCKSOURCE_ITRX_INSTANCE(htim->Instance));

      TIM_ITRx_SetConfig(htim->Instance, sClockSourceConfig->ClockSource);
 800297e:	687b      	ldr	r3, [r7, #4]
 8002980:	681a      	ldr	r2, [r3, #0]
 8002982:	683b      	ldr	r3, [r7, #0]
 8002984:	681b      	ldr	r3, [r3, #0]
 8002986:	4619      	mov	r1, r3
 8002988:	4610      	mov	r0, r2
 800298a:	f000 fbea 	bl	8003162 <TIM_ITRx_SetConfig>
      break;
 800298e:	e003      	b.n	8002998 <HAL_TIM_ConfigClockSource+0x174>
    }

    default:
      status = HAL_ERROR;
 8002990:	2301      	movs	r3, #1
 8002992:	73fb      	strb	r3, [r7, #15]
      break;
 8002994:	e000      	b.n	8002998 <HAL_TIM_ConfigClockSource+0x174>
      break;
 8002996:	bf00      	nop
  }
  htim->State = HAL_TIM_STATE_READY;
 8002998:	687b      	ldr	r3, [r7, #4]
 800299a:	2201      	movs	r2, #1
 800299c:	f883 203d 	strb.w	r2, [r3, #61]	@ 0x3d

  __HAL_UNLOCK(htim);
 80029a0:	687b      	ldr	r3, [r7, #4]
 80029a2:	2200      	movs	r2, #0
 80029a4:	f883 203c 	strb.w	r2, [r3, #60]	@ 0x3c

  return status;
 80029a8:	7bfb      	ldrb	r3, [r7, #15]
}
 80029aa:	4618      	mov	r0, r3
 80029ac:	3710      	adds	r7, #16
 80029ae:	46bd      	mov	sp, r7
 80029b0:	bd80      	pop	{r7, pc}

080029b2 <HAL_TIM_PeriodElapsedCallback>:
  * @brief  Period elapsed callback in non-blocking mode
  * @param  htim TIM handle
  * @retval None
  */
__weak void HAL_TIM_PeriodElapsedCallback(TIM_HandleTypeDef *htim)
{
 80029b2:	b480      	push	{r7}
 80029b4:	b083      	sub	sp, #12
 80029b6:	af00      	add	r7, sp, #0
 80029b8:	6078      	str	r0, [r7, #4]
  UNUSED(htim);

  /* NOTE : This function should not be modified, when the callback is needed,
            the HAL_TIM_PeriodElapsedCallback could be implemented in the user file
   */
}
 80029ba:	bf00      	nop
 80029bc:	370c      	adds	r7, #12
 80029be:	46bd      	mov	sp, r7
 80029c0:	f85d 7b04 	ldr.w	r7, [sp], #4
 80029c4:	4770      	bx	lr

080029c6 <HAL_TIM_PeriodElapsedHalfCpltCallback>:
  * @brief  Period elapsed half complete callback in non-blocking mode
  * @param  htim TIM handle
  * @retval None
  */
__weak void HAL_TIM_PeriodElapsedHalfCpltCallback(TIM_HandleTypeDef *htim)
{
 80029c6:	b480      	push	{r7}
 80029c8:	b083      	sub	sp, #12
 80029ca:	af00      	add	r7, sp, #0
 80029cc:	6078      	str	r0, [r7, #4]
  UNUSED(htim);

  /* NOTE : This function should not be modified, when the callback is needed,
            the HAL_TIM_PeriodElapsedHalfCpltCallback could be implemented in the user file
   */
}
 80029ce:	bf00      	nop
 80029d0:	370c      	adds	r7, #12
 80029d2:	46bd      	mov	sp, r7
 80029d4:	f85d 7b04 	ldr.w	r7, [sp], #4
 80029d8:	4770      	bx	lr

080029da <HAL_TIM_PWM_PulseFinishedCallback>:
  * @brief  PWM Pulse finished callback in non-blocking mode
  * @param  htim TIM handle
  * @retval None
  */
__weak void HAL_TIM_PWM_PulseFinishedCallback(TIM_HandleTypeDef *htim)
{
 80029da:	b480      	push	{r7}
 80029dc:	b083      	sub	sp, #12
 80029de:	af00      	add	r7, sp, #0
 80029e0:	6078      	str	r0, [r7, #4]
  UNUSED(htim);

  /* NOTE : This function should not be modified, when the callback is needed,
            the HAL_TIM_PWM_PulseFinishedCallback could be implemented in the user file
   */
}
 80029e2:	bf00      	nop
 80029e4:	370c      	adds	r7, #12
 80029e6:	46bd      	mov	sp, r7
 80029e8:	f85d 7b04 	ldr.w	r7, [sp], #4
 80029ec:	4770      	bx	lr

080029ee <HAL_TIM_PWM_PulseFinishedHalfCpltCallback>:
  * @brief  PWM Pulse finished half complete callback in non-blocking mode
  * @param  htim TIM handle
  * @retval None
  */
__weak void HAL_TIM_PWM_PulseFinishedHalfCpltCallback(TIM_HandleTypeDef *htim)
{
 80029ee:	b480      	push	{r7}
 80029f0:	b083      	sub	sp, #12
 80029f2:	af00      	add	r7, sp, #0
 80029f4:	6078      	str	r0, [r7, #4]
  UNUSED(htim);

  /* NOTE : This function should not be modified, when the callback is needed,
            the HAL_TIM_PWM_PulseFinishedHalfCpltCallback could be implemented in the user file
   */
}
 80029f6:	bf00      	nop
 80029f8:	370c      	adds	r7, #12
 80029fa:	46bd      	mov	sp, r7
 80029fc:	f85d 7b04 	ldr.w	r7, [sp], #4
 8002a00:	4770      	bx	lr

08002a02 <HAL_TIM_TriggerCallback>:
  * @brief  Hall Trigger detection callback in non-blocking mode
  * @param  htim TIM handle
  * @retval None
  */
__weak void HAL_TIM_TriggerCallback(TIM_HandleTypeDef *htim)
{
 8002a02:	b480      	push	{r7}
 8002a04:	b083      	sub	sp, #12
 8002a06:	af00      	add	r7, sp, #0
 8002a08:	6078      	str	r0, [r7, #4]
  UNUSED(htim);

  /* NOTE : This function should not be modified, when the callback is needed,
            the HAL_TIM_TriggerCallback could be implemented in the user file
   */
}
 8002a0a:	bf00      	nop
 8002a0c:	370c      	adds	r7, #12
 8002a0e:	46bd      	mov	sp, r7
 8002a10:	f85d 7b04 	ldr.w	r7, [sp], #4
 8002a14:	4770      	bx	lr

08002a16 <HAL_TIM_TriggerHalfCpltCallback>:
  * @brief  Hall Trigger detection half complete callback in non-blocking mode
  * @param  htim TIM handle
  * @retval None
  */
__weak void HAL_TIM_TriggerHalfCpltCallback(TIM_HandleTypeDef *htim)
{
 8002a16:	b480      	push	{r7}
 8002a18:	b083      	sub	sp, #12
 8002a1a:	af00      	add	r7, sp, #0
 8002a1c:	6078      	str	r0, [r7, #4]
  UNUSED(htim);

  /* NOTE : This function should not be modified, when the callback is needed,
            the HAL_TIM_TriggerHalfCpltCallback could be implemented in the user file
   */
}
 8002a1e:	bf00      	nop
 8002a20:	370c      	adds	r7, #12
 8002a22:	46bd      	mov	sp, r7
 8002a24:	f85d 7b04 	ldr.w	r7, [sp], #4
 8002a28:	4770      	bx	lr

08002a2a <HAL_TIM_ErrorCallback>:
  * @brief  Timer error callback in non-blocking mode
  * @param  htim TIM handle
  * @retval None
  */
__weak void HAL_TIM_ErrorCallback(TIM_HandleTypeDef *htim)
{
 8002a2a:	b480      	push	{r7}
 8002a2c:	b083      	sub	sp, #12
 8002a2e:	af00      	add	r7, sp, #0
 8002a30:	6078      	str	r0, [r7, #4]
  UNUSED(htim);

  /* NOTE : This function should not be modified, when the callback is needed,
            the HAL_TIM_ErrorCallback could be implemented in the user file
   */
}
 8002a32:	bf00      	nop
 8002a34:	370c      	adds	r7, #12
 8002a36:	46bd      	mov	sp, r7
 8002a38:	f85d 7b04 	ldr.w	r7, [sp], #4
 8002a3c:	4770      	bx	lr

08002a3e <TIM_DMAError>:
  * @brief  TIM DMA error callback
  * @param  hdma pointer to DMA handle.
  * @retval None
  */
void TIM_DMAError(DMA_HandleTypeDef *hdma)
{
 8002a3e:	b580      	push	{r7, lr}
 8002a40:	b084      	sub	sp, #16
 8002a42:	af00      	add	r7, sp, #0
 8002a44:	6078      	str	r0, [r7, #4]
  TIM_HandleTypeDef *htim = (TIM_HandleTypeDef *)((DMA_HandleTypeDef *)hdma)->Parent;
 8002a46:	687b      	ldr	r3, [r7, #4]
 8002a48:	6b9b      	ldr	r3, [r3, #56]	@ 0x38
 8002a4a:	60fb      	str	r3, [r7, #12]

  if (hdma == htim->hdma[TIM_DMA_ID_CC1])
 8002a4c:	68fb      	ldr	r3, [r7, #12]
 8002a4e:	6a5b      	ldr	r3, [r3, #36]	@ 0x24
 8002a50:	687a      	ldr	r2, [r7, #4]
 8002a52:	429a      	cmp	r2, r3
 8002a54:	d107      	bne.n	8002a66 <TIM_DMAError+0x28>
  {
    htim->Channel = HAL_TIM_ACTIVE_CHANNEL_1;
 8002a56:	68fb      	ldr	r3, [r7, #12]
 8002a58:	2201      	movs	r2, #1
 8002a5a:	771a      	strb	r2, [r3, #28]
    TIM_CHANNEL_STATE_SET(htim, TIM_CHANNEL_1, HAL_TIM_CHANNEL_STATE_READY);
 8002a5c:	68fb      	ldr	r3, [r7, #12]
 8002a5e:	2201      	movs	r2, #1
 8002a60:	f883 203e 	strb.w	r2, [r3, #62]	@ 0x3e
 8002a64:	e02a      	b.n	8002abc <TIM_DMAError+0x7e>
  }
  else if (hdma == htim->hdma[TIM_DMA_ID_CC2])
 8002a66:	68fb      	ldr	r3, [r7, #12]
 8002a68:	6a9b      	ldr	r3, [r3, #40]	@ 0x28
 8002a6a:	687a      	ldr	r2, [r7, #4]
 8002a6c:	429a      	cmp	r2, r3
 8002a6e:	d107      	bne.n	8002a80 <TIM_DMAError+0x42>
  {
    htim->Channel = HAL_TIM_ACTIVE_CHANNEL_2;
 8002a70:	68fb      	ldr	r3, [r7, #12]
 8002a72:	2202      	movs	r2, #2
 8002a74:	771a      	strb	r2, [r3, #28]
    TIM_CHANNEL_STATE_SET(htim, TIM_CHANNEL_2, HAL_TIM_CHANNEL_STATE_READY);
 8002a76:	68fb      	ldr	r3, [r7, #12]
 8002a78:	2201      	movs	r2, #1
 8002a7a:	f883 203f 	strb.w	r2, [r3, #63]	@ 0x3f
 8002a7e:	e01d      	b.n	8002abc <TIM_DMAError+0x7e>
  }
  else if (hdma == htim->hdma[TIM_DMA_ID_CC3])
 8002a80:	68fb      	ldr	r3, [r7, #12]
 8002a82:	6adb      	ldr	r3, [r3, #44]	@ 0x2c
 8002a84:	687a      	ldr	r2, [r7, #4]
 8002a86:	429a      	cmp	r2, r3
 8002a88:	d107      	bne.n	8002a9a <TIM_DMAError+0x5c>
  {
    htim->Channel = HAL_TIM_ACTIVE_CHANNEL_3;
 8002a8a:	68fb      	ldr	r3, [r7, #12]
 8002a8c:	2204      	movs	r2, #4
 8002a8e:	771a      	strb	r2, [r3, #28]
    TIM_CHANNEL_STATE_SET(htim, TIM_CHANNEL_3, HAL_TIM_CHANNEL_STATE_READY);
 8002a90:	68fb      	ldr	r3, [r7, #12]
 8002a92:	2201      	movs	r2, #1
 8002a94:	f883 2040 	strb.w	r2, [r3, #64]	@ 0x40
 8002a98:	e010      	b.n	8002abc <TIM_DMAError+0x7e>
  }
  else if (hdma == htim->hdma[TIM_DMA_ID_CC4])
 8002a9a:	68fb      	ldr	r3, [r7, #12]
 8002a9c:	6b1b      	ldr	r3, [r3, #48]	@ 0x30
 8002a9e:	687a      	ldr	r2, [r7, #4]
 8002aa0:	429a      	cmp	r2, r3
 8002aa2:	d107      	bne.n	8002ab4 <TIM_DMAError+0x76>
  {
    htim->Channel = HAL_TIM_ACTIVE_CHANNEL_4;
 8002aa4:	68fb      	ldr	r3, [r7, #12]
 8002aa6:	2208      	movs	r2, #8
 8002aa8:	771a      	strb	r2, [r3, #28]
    TIM_CHANNEL_STATE_SET(htim, TIM_CHANNEL_4, HAL_TIM_CHANNEL_STATE_READY);
 8002aaa:	68fb      	ldr	r3, [r7, #12]
 8002aac:	2201      	movs	r2, #1
 8002aae:	f883 2041 	strb.w	r2, [r3, #65]	@ 0x41
 8002ab2:	e003      	b.n	8002abc <TIM_DMAError+0x7e>
  }
  else
  {
    htim->State = HAL_TIM_STATE_READY;
 8002ab4:	68fb      	ldr	r3, [r7, #12]
 8002ab6:	2201      	movs	r2, #1
 8002ab8:	f883 203d 	strb.w	r2, [r3, #61]	@ 0x3d
  }

#if (USE_HAL_TIM_REGISTER_CALLBACKS == 1)
  htim->ErrorCallback(htim);
#else
  HAL_TIM_ErrorCallback(htim);
 8002abc:	68f8      	ldr	r0, [r7, #12]
 8002abe:	f7ff ffb4 	bl	8002a2a <HAL_TIM_ErrorCallback>
#endif /* USE_HAL_TIM_REGISTER_CALLBACKS */

  htim->Channel = HAL_TIM_ACTIVE_CHANNEL_CLEARED;
 8002ac2:	68fb      	ldr	r3, [r7, #12]
 8002ac4:	2200      	movs	r2, #0
 8002ac6:	771a      	strb	r2, [r3, #28]
}
 8002ac8:	bf00      	nop
 8002aca:	3710      	adds	r7, #16
 8002acc:	46bd      	mov	sp, r7
 8002ace:	bd80      	pop	{r7, pc}

08002ad0 <TIM_DMADelayPulseCplt>:
  * @brief  TIM DMA Delay Pulse complete callback.
  * @param  hdma pointer to DMA handle.
  * @retval None
  */
static void TIM_DMADelayPulseCplt(DMA_HandleTypeDef *hdma)
{
 8002ad0:	b580      	push	{r7, lr}
 8002ad2:	b084      	sub	sp, #16
 8002ad4:	af00      	add	r7, sp, #0
 8002ad6:	6078      	str	r0, [r7, #4]
  TIM_HandleTypeDef *htim = (TIM_HandleTypeDef *)((DMA_HandleTypeDef *)hdma)->Parent;
 8002ad8:	687b      	ldr	r3, [r7, #4]
 8002ada:	6b9b      	ldr	r3, [r3, #56]	@ 0x38
 8002adc:	60fb      	str	r3, [r7, #12]

  if (hdma == htim->hdma[TIM_DMA_ID_CC1])
 8002ade:	68fb      	ldr	r3, [r7, #12]
 8002ae0:	6a5b      	ldr	r3, [r3, #36]	@ 0x24
 8002ae2:	687a      	ldr	r2, [r7, #4]
 8002ae4:	429a      	cmp	r2, r3
 8002ae6:	d10b      	bne.n	8002b00 <TIM_DMADelayPulseCplt+0x30>
  {
    htim->Channel = HAL_TIM_ACTIVE_CHANNEL_1;
 8002ae8:	68fb      	ldr	r3, [r7, #12]
 8002aea:	2201      	movs	r2, #1
 8002aec:	771a      	strb	r2, [r3, #28]

    if (hdma->Init.Mode == DMA_NORMAL)
 8002aee:	687b      	ldr	r3, [r7, #4]
 8002af0:	69db      	ldr	r3, [r3, #28]
 8002af2:	2b00      	cmp	r3, #0
 8002af4:	d136      	bne.n	8002b64 <TIM_DMADelayPulseCplt+0x94>
    {
      TIM_CHANNEL_STATE_SET(htim, TIM_CHANNEL_1, HAL_TIM_CHANNEL_STATE_READY);
 8002af6:	68fb      	ldr	r3, [r7, #12]
 8002af8:	2201      	movs	r2, #1
 8002afa:	f883 203e 	strb.w	r2, [r3, #62]	@ 0x3e
 8002afe:	e031      	b.n	8002b64 <TIM_DMADelayPulseCplt+0x94>
    }
  }
  else if (hdma == htim->hdma[TIM_DMA_ID_CC2])
 8002b00:	68fb      	ldr	r3, [r7, #12]
 8002b02:	6a9b      	ldr	r3, [r3, #40]	@ 0x28
 8002b04:	687a      	ldr	r2, [r7, #4]
 8002b06:	429a      	cmp	r2, r3
 8002b08:	d10b      	bne.n	8002b22 <TIM_DMADelayPulseCplt+0x52>
  {
    htim->Channel = HAL_TIM_ACTIVE_CHANNEL_2;
 8002b0a:	68fb      	ldr	r3, [r7, #12]
 8002b0c:	2202      	movs	r2, #2
 8002b0e:	771a      	strb	r2, [r3, #28]

    if (hdma->Init.Mode == DMA_NORMAL)
 8002b10:	687b      	ldr	r3, [r7, #4]
 8002b12:	69db      	ldr	r3, [r3, #28]
 8002b14:	2b00      	cmp	r3, #0
 8002b16:	d125      	bne.n	8002b64 <TIM_DMADelayPulseCplt+0x94>
    {
      TIM_CHANNEL_STATE_SET(htim, TIM_CHANNEL_2, HAL_TIM_CHANNEL_STATE_READY);
 8002b18:	68fb      	ldr	r3, [r7, #12]
 8002b1a:	2201      	movs	r2, #1
 8002b1c:	f883 203f 	strb.w	r2, [r3, #63]	@ 0x3f
 8002b20:	e020      	b.n	8002b64 <TIM_DMADelayPulseCplt+0x94>
    }
  }
  else if (hdma == htim->hdma[TIM_DMA_ID_CC3])
 8002b22:	68fb      	ldr	r3, [r7, #12]
 8002b24:	6adb      	ldr	r3, [r3, #44]	@ 0x2c
 8002b26:	687a      	ldr	r2, [r7, #4]
 8002b28:	429a      	cmp	r2, r3
 8002b2a:	d10b      	bne.n	8002b44 <TIM_DMADelayPulseCplt+0x74>
  {
    htim->Channel = HAL_TIM_ACTIVE_CHANNEL_3;
 8002b2c:	68fb      	ldr	r3, [r7, #12]
 8002b2e:	2204      	movs	r2, #4
 8002b30:	771a      	strb	r2, [r3, #28]

    if (hdma->Init.Mode == DMA_NORMAL)
 8002b32:	687b      	ldr	r3, [r7, #4]
 8002b34:	69db      	ldr	r3, [r3, #28]
 8002b36:	2b00      	cmp	r3, #0
 8002b38:	d114      	bne.n	8002b64 <TIM_DMADelayPulseCplt+0x94>
    {
      TIM_CHANNEL_STATE_SET(htim, TIM_CHANNEL_3, HAL_TIM_CHANNEL_STATE_READY);
 8002b3a:	68fb      	ldr	r3, [r7, #12]
 8002b3c:	2201      	movs	r2, #1
 8002b3e:	f883 2040 	strb.w	r2, [r3, #64]	@ 0x40
 8002b42:	e00f      	b.n	8002b64 <TIM_DMADelayPulseCplt+0x94>
    }
  }
  else if (hdma == htim->hdma[TIM_DMA_ID_CC4])
 8002b44:	68fb      	ldr	r3, [r7, #12]
 8002b46:	6b1b      	ldr	r3, [r3, #48]	@ 0x30
 8002b48:	687a      	ldr	r2, [r7, #4]
 8002b4a:	429a      	cmp	r2, r3
 8002b4c:	d10a      	bne.n	8002b64 <TIM_DMADelayPulseCplt+0x94>
  {
    htim->Channel = HAL_TIM_ACTIVE_CHANNEL_4;
 8002b4e:	68fb      	ldr	r3, [r7, #12]
 8002b50:	2208      	movs	r2, #8
 8002b52:	771a      	strb	r2, [r3, #28]

    if (hdma->Init.Mode == DMA_NORMAL)
 8002b54:	687b      	ldr	r3, [r7, #4]
 8002b56:	69db      	ldr	r3, [r3, #28]
 8002b58:	2b00      	cmp	r3, #0
 8002b5a:	d103      	bne.n	8002b64 <TIM_DMADelayPulseCplt+0x94>
    {
      TIM_CHANNEL_STATE_SET(htim, TIM_CHANNEL_4, HAL_TIM_CHANNEL_STATE_READY);
 8002b5c:	68fb      	ldr	r3, [r7, #12]
 8002b5e:	2201      	movs	r2, #1
 8002b60:	f883 2041 	strb.w	r2, [r3, #65]	@ 0x41
  }

#if (USE_HAL_TIM_REGISTER_CALLBACKS == 1)
  htim->PWM_PulseFinishedCallback(htim);
#else
  HAL_TIM_PWM_PulseFinishedCallback(htim);
 8002b64:	68f8      	ldr	r0, [r7, #12]
 8002b66:	f7ff ff38 	bl	80029da <HAL_TIM_PWM_PulseFinishedCallback>
#endif /* USE_HAL_TIM_REGISTER_CALLBACKS */

  htim->Channel = HAL_TIM_ACTIVE_CHANNEL_CLEARED;
 8002b6a:	68fb      	ldr	r3, [r7, #12]
 8002b6c:	2200      	movs	r2, #0
 8002b6e:	771a      	strb	r2, [r3, #28]
}
 8002b70:	bf00      	nop
 8002b72:	3710      	adds	r7, #16
 8002b74:	46bd      	mov	sp, r7
 8002b76:	bd80      	pop	{r7, pc}

08002b78 <TIM_DMADelayPulseHalfCplt>:
  * @brief  TIM DMA Delay Pulse half complete callback.
  * @param  hdma pointer to DMA handle.
  * @retval None
  */
void TIM_DMADelayPulseHalfCplt(DMA_HandleTypeDef *hdma)
{
 8002b78:	b580      	push	{r7, lr}
 8002b7a:	b084      	sub	sp, #16
 8002b7c:	af00      	add	r7, sp, #0
 8002b7e:	6078      	str	r0, [r7, #4]
  TIM_HandleTypeDef *htim = (TIM_HandleTypeDef *)((DMA_HandleTypeDef *)hdma)->Parent;
 8002b80:	687b      	ldr	r3, [r7, #4]
 8002b82:	6b9b      	ldr	r3, [r3, #56]	@ 0x38
 8002b84:	60fb      	str	r3, [r7, #12]

  if (hdma == htim->hdma[TIM_DMA_ID_CC1])
 8002b86:	68fb      	ldr	r3, [r7, #12]
 8002b88:	6a5b      	ldr	r3, [r3, #36]	@ 0x24
 8002b8a:	687a      	ldr	r2, [r7, #4]
 8002b8c:	429a      	cmp	r2, r3
 8002b8e:	d103      	bne.n	8002b98 <TIM_DMADelayPulseHalfCplt+0x20>
  {
    htim->Channel = HAL_TIM_ACTIVE_CHANNEL_1;
 8002b90:	68fb      	ldr	r3, [r7, #12]
 8002b92:	2201      	movs	r2, #1
 8002b94:	771a      	strb	r2, [r3, #28]
 8002b96:	e019      	b.n	8002bcc <TIM_DMADelayPulseHalfCplt+0x54>
  }
  else if (hdma == htim->hdma[TIM_DMA_ID_CC2])
 8002b98:	68fb      	ldr	r3, [r7, #12]
 8002b9a:	6a9b      	ldr	r3, [r3, #40]	@ 0x28
 8002b9c:	687a      	ldr	r2, [r7, #4]
 8002b9e:	429a      	cmp	r2, r3
 8002ba0:	d103      	bne.n	8002baa <TIM_DMADelayPulseHalfCplt+0x32>
  {
    htim->Channel = HAL_TIM_ACTIVE_CHANNEL_2;
 8002ba2:	68fb      	ldr	r3, [r7, #12]
 8002ba4:	2202      	movs	r2, #2
 8002ba6:	771a      	strb	r2, [r3, #28]
 8002ba8:	e010      	b.n	8002bcc <TIM_DMADelayPulseHalfCplt+0x54>
  }
  else if (hdma == htim->hdma[TIM_DMA_ID_CC3])
 8002baa:	68fb      	ldr	r3, [r7, #12]
 8002bac:	6adb      	ldr	r3, [r3, #44]	@ 0x2c
 8002bae:	687a      	ldr	r2, [r7, #4]
 8002bb0:	429a      	cmp	r2, r3
 8002bb2:	d103      	bne.n	8002bbc <TIM_DMADelayPulseHalfCplt+0x44>
  {
    htim->Channel = HAL_TIM_ACTIVE_CHANNEL_3;
 8002bb4:	68fb      	ldr	r3, [r7, #12]
 8002bb6:	2204      	movs	r2, #4
 8002bb8:	771a      	strb	r2, [r3, #28]
 8002bba:	e007      	b.n	8002bcc <TIM_DMADelayPulseHalfCplt+0x54>
  }
  else if (hdma == htim->hdma[TIM_DMA_ID_CC4])
 8002bbc:	68fb      	ldr	r3, [r7, #12]
 8002bbe:	6b1b      	ldr	r3, [r3, #48]	@ 0x30
 8002bc0:	687a      	ldr	r2, [r7, #4]
 8002bc2:	429a      	cmp	r2, r3
 8002bc4:	d102      	bne.n	8002bcc <TIM_DMADelayPulseHalfCplt+0x54>
  {
    htim->Channel = HAL_TIM_ACTIVE_CHANNEL_4;
 8002bc6:	68fb      	ldr	r3, [r7, #12]
 8002bc8:	2208      	movs	r2, #8
 8002bca:	771a      	strb	r2, [r3, #28]
  }

#if (USE_HAL_TIM_REGISTER_CALLBACKS == 1)
  htim->PWM_PulseFinishedHalfCpltCallback(htim);
#else
  HAL_TIM_PWM_PulseFinishedHalfCpltCallback(htim);
 8002bcc:	68f8      	ldr	r0, [r7, #12]
 8002bce:	f7ff ff0e 	bl	80029ee <HAL_TIM_PWM_PulseFinishedHalfCpltCallback>
#endif /* USE_HAL_TIM_REGISTER_CALLBACKS */

  htim->Channel = HAL_TIM_ACTIVE_CHANNEL_CLEARED;
 8002bd2:	68fb      	ldr	r3, [r7, #12]
 8002bd4:	2200      	movs	r2, #0
 8002bd6:	771a      	strb	r2, [r3, #28]
}
 8002bd8:	bf00      	nop
 8002bda:	3710      	adds	r7, #16
 8002bdc:	46bd      	mov	sp, r7
 8002bde:	bd80      	pop	{r7, pc}

08002be0 <TIM_DMAPeriodElapsedCplt>:
  * @brief  TIM DMA Period Elapse complete callback.
  * @param  hdma pointer to DMA handle.
  * @retval None
  */
static void TIM_DMAPeriodElapsedCplt(DMA_HandleTypeDef *hdma)
{
 8002be0:	b580      	push	{r7, lr}
 8002be2:	b084      	sub	sp, #16
 8002be4:	af00      	add	r7, sp, #0
 8002be6:	6078      	str	r0, [r7, #4]
  TIM_HandleTypeDef *htim = (TIM_HandleTypeDef *)((DMA_HandleTypeDef *)hdma)->Parent;
 8002be8:	687b      	ldr	r3, [r7, #4]
 8002bea:	6b9b      	ldr	r3, [r3, #56]	@ 0x38
 8002bec:	60fb      	str	r3, [r7, #12]

  if (htim->hdma[TIM_DMA_ID_UPDATE]->Init.Mode == DMA_NORMAL)
 8002bee:	68fb      	ldr	r3, [r7, #12]
 8002bf0:	6a1b      	ldr	r3, [r3, #32]
 8002bf2:	69db      	ldr	r3, [r3, #28]
 8002bf4:	2b00      	cmp	r3, #0
 8002bf6:	d103      	bne.n	8002c00 <TIM_DMAPeriodElapsedCplt+0x20>
  {
    htim->State = HAL_TIM_STATE_READY;
 8002bf8:	68fb      	ldr	r3, [r7, #12]
 8002bfa:	2201      	movs	r2, #1
 8002bfc:	f883 203d 	strb.w	r2, [r3, #61]	@ 0x3d
  }

#if (USE_HAL_TIM_REGISTER_CALLBACKS == 1)
  htim->PeriodElapsedCallback(htim);
#else
  HAL_TIM_PeriodElapsedCallback(htim);
 8002c00:	68f8      	ldr	r0, [r7, #12]
 8002c02:	f7ff fed6 	bl	80029b2 <HAL_TIM_PeriodElapsedCallback>
#endif /* USE_HAL_TIM_REGISTER_CALLBACKS */
}
 8002c06:	bf00      	nop
 8002c08:	3710      	adds	r7, #16
 8002c0a:	46bd      	mov	sp, r7
 8002c0c:	bd80      	pop	{r7, pc}

08002c0e <TIM_DMAPeriodElapsedHalfCplt>:
  * @brief  TIM DMA Period Elapse half complete callback.
  * @param  hdma pointer to DMA handle.
  * @retval None
  */
static void TIM_DMAPeriodElapsedHalfCplt(DMA_HandleTypeDef *hdma)
{
 8002c0e:	b580      	push	{r7, lr}
 8002c10:	b084      	sub	sp, #16
 8002c12:	af00      	add	r7, sp, #0
 8002c14:	6078      	str	r0, [r7, #4]
  TIM_HandleTypeDef *htim = (TIM_HandleTypeDef *)((DMA_HandleTypeDef *)hdma)->Parent;
 8002c16:	687b      	ldr	r3, [r7, #4]
 8002c18:	6b9b      	ldr	r3, [r3, #56]	@ 0x38
 8002c1a:	60fb      	str	r3, [r7, #12]

#if (USE_HAL_TIM_REGISTER_CALLBACKS == 1)
  htim->PeriodElapsedHalfCpltCallback(htim);
#else
  HAL_TIM_PeriodElapsedHalfCpltCallback(htim);
 8002c1c:	68f8      	ldr	r0, [r7, #12]
 8002c1e:	f7ff fed2 	bl	80029c6 <HAL_TIM_PeriodElapsedHalfCpltCallback>
#endif /* USE_HAL_TIM_REGISTER_CALLBACKS */
}
 8002c22:	bf00      	nop
 8002c24:	3710      	adds	r7, #16
 8002c26:	46bd      	mov	sp, r7
 8002c28:	bd80      	pop	{r7, pc}

08002c2a <TIM_DMATriggerCplt>:
  * @brief  TIM DMA Trigger callback.
  * @param  hdma pointer to DMA handle.
  * @retval None
  */
static void TIM_DMATriggerCplt(DMA_HandleTypeDef *hdma)
{
 8002c2a:	b580      	push	{r7, lr}
 8002c2c:	b084      	sub	sp, #16
 8002c2e:	af00      	add	r7, sp, #0
 8002c30:	6078      	str	r0, [r7, #4]
  TIM_HandleTypeDef *htim = (TIM_HandleTypeDef *)((DMA_HandleTypeDef *)hdma)->Parent;
 8002c32:	687b      	ldr	r3, [r7, #4]
 8002c34:	6b9b      	ldr	r3, [r3, #56]	@ 0x38
 8002c36:	60fb      	str	r3, [r7, #12]

  if (htim->hdma[TIM_DMA_ID_TRIGGER]->Init.Mode == DMA_NORMAL)
 8002c38:	68fb      	ldr	r3, [r7, #12]
 8002c3a:	6b9b      	ldr	r3, [r3, #56]	@ 0x38
 8002c3c:	69db      	ldr	r3, [r3, #28]
 8002c3e:	2b00      	cmp	r3, #0
 8002c40:	d103      	bne.n	8002c4a <TIM_DMATriggerCplt+0x20>
  {
    htim->State = HAL_TIM_STATE_READY;
 8002c42:	68fb      	ldr	r3, [r7, #12]
 8002c44:	2201      	movs	r2, #1
 8002c46:	f883 203d 	strb.w	r2, [r3, #61]	@ 0x3d
  }

#if (USE_HAL_TIM_REGISTER_CALLBACKS == 1)
  htim->TriggerCallback(htim);
#else
  HAL_TIM_TriggerCallback(htim);
 8002c4a:	68f8      	ldr	r0, [r7, #12]
 8002c4c:	f7ff fed9 	bl	8002a02 <HAL_TIM_TriggerCallback>
#endif /* USE_HAL_TIM_REGISTER_CALLBACKS */
}
 8002c50:	bf00      	nop
 8002c52:	3710      	adds	r7, #16
 8002c54:	46bd      	mov	sp, r7
 8002c56:	bd80      	pop	{r7, pc}

08002c58 <TIM_DMATriggerHalfCplt>:
  * @brief  TIM DMA Trigger half complete callback.
  * @param  hdma pointer to DMA handle.
  * @retval None
  */
static void TIM_DMATriggerHalfCplt(DMA_HandleTypeDef *hdma)
{
 8002c58:	b580      	push	{r7, lr}
 8002c5a:	b084      	sub	sp, #16
 8002c5c:	af00      	add	r7, sp, #0
 8002c5e:	6078      	str	r0, [r7, #4]
  TIM_HandleTypeDef *htim = (TIM_HandleTypeDef *)((DMA_HandleTypeDef *)hdma)->Parent;
 8002c60:	687b      	ldr	r3, [r7, #4]
 8002c62:	6b9b      	ldr	r3, [r3, #56]	@ 0x38
 8002c64:	60fb      	str	r3, [r7, #12]

#if (USE_HAL_TIM_REGISTER_CALLBACKS == 1)
  htim->TriggerHalfCpltCallback(htim);
#else
  HAL_TIM_TriggerHalfCpltCallback(htim);
 8002c66:	68f8      	ldr	r0, [r7, #12]
 8002c68:	f7ff fed5 	bl	8002a16 <HAL_TIM_TriggerHalfCpltCallback>
#endif /* USE_HAL_TIM_REGISTER_CALLBACKS */
}
 8002c6c:	bf00      	nop
 8002c6e:	3710      	adds	r7, #16
 8002c70:	46bd      	mov	sp, r7
 8002c72:	bd80      	pop	{r7, pc}

08002c74 <TIM_Base_SetConfig>:
  * @param  TIMx TIM peripheral
  * @param  Structure TIM Base configuration structure
  * @retval None
  */
void TIM_Base_SetConfig(TIM_TypeDef *TIMx, const TIM_Base_InitTypeDef *Structure)
{
 8002c74:	b480      	push	{r7}
 8002c76:	b085      	sub	sp, #20
 8002c78:	af00      	add	r7, sp, #0
 8002c7a:	6078      	str	r0, [r7, #4]
 8002c7c:	6039      	str	r1, [r7, #0]
  uint32_t tmpcr1;
  tmpcr1 = TIMx->CR1;
 8002c7e:	687b      	ldr	r3, [r7, #4]
 8002c80:	681b      	ldr	r3, [r3, #0]
 8002c82:	60fb      	str	r3, [r7, #12]

  /* Set TIM Time Base Unit parameters ---------------------------------------*/
  if (IS_TIM_COUNTER_MODE_SELECT_INSTANCE(TIMx))
 8002c84:	687b      	ldr	r3, [r7, #4]
 8002c86:	4a3a      	ldr	r2, [pc, #232]	@ (8002d70 <TIM_Base_SetConfig+0xfc>)
 8002c88:	4293      	cmp	r3, r2
 8002c8a:	d00f      	beq.n	8002cac <TIM_Base_SetConfig+0x38>
 8002c8c:	687b      	ldr	r3, [r7, #4]
 8002c8e:	f1b3 4f80 	cmp.w	r3, #1073741824	@ 0x40000000
 8002c92:	d00b      	beq.n	8002cac <TIM_Base_SetConfig+0x38>
 8002c94:	687b      	ldr	r3, [r7, #4]
 8002c96:	4a37      	ldr	r2, [pc, #220]	@ (8002d74 <TIM_Base_SetConfig+0x100>)
 8002c98:	4293      	cmp	r3, r2
 8002c9a:	d007      	beq.n	8002cac <TIM_Base_SetConfig+0x38>
 8002c9c:	687b      	ldr	r3, [r7, #4]
 8002c9e:	4a36      	ldr	r2, [pc, #216]	@ (8002d78 <TIM_Base_SetConfig+0x104>)
 8002ca0:	4293      	cmp	r3, r2
 8002ca2:	d003      	beq.n	8002cac <TIM_Base_SetConfig+0x38>
 8002ca4:	687b      	ldr	r3, [r7, #4]
 8002ca6:	4a35      	ldr	r2, [pc, #212]	@ (8002d7c <TIM_Base_SetConfig+0x108>)
 8002ca8:	4293      	cmp	r3, r2
 8002caa:	d108      	bne.n	8002cbe <TIM_Base_SetConfig+0x4a>
  {
    /* Select the Counter Mode */
    tmpcr1 &= ~(TIM_CR1_DIR | TIM_CR1_CMS);
 8002cac:	68fb      	ldr	r3, [r7, #12]
 8002cae:	f023 0370 	bic.w	r3, r3, #112	@ 0x70
 8002cb2:	60fb      	str	r3, [r7, #12]
    tmpcr1 |= Structure->CounterMode;
 8002cb4:	683b      	ldr	r3, [r7, #0]
 8002cb6:	685b      	ldr	r3, [r3, #4]
 8002cb8:	68fa      	ldr	r2, [r7, #12]
 8002cba:	4313      	orrs	r3, r2
 8002cbc:	60fb      	str	r3, [r7, #12]
  }

  if (IS_TIM_CLOCK_DIVISION_INSTANCE(TIMx))
 8002cbe:	687b      	ldr	r3, [r7, #4]
 8002cc0:	4a2b      	ldr	r2, [pc, #172]	@ (8002d70 <TIM_Base_SetConfig+0xfc>)
 8002cc2:	4293      	cmp	r3, r2
 8002cc4:	d01b      	beq.n	8002cfe <TIM_Base_SetConfig+0x8a>
 8002cc6:	687b      	ldr	r3, [r7, #4]
 8002cc8:	f1b3 4f80 	cmp.w	r3, #1073741824	@ 0x40000000
 8002ccc:	d017      	beq.n	8002cfe <TIM_Base_SetConfig+0x8a>
 8002cce:	687b      	ldr	r3, [r7, #4]
 8002cd0:	4a28      	ldr	r2, [pc, #160]	@ (8002d74 <TIM_Base_SetConfig+0x100>)
 8002cd2:	4293      	cmp	r3, r2
 8002cd4:	d013      	beq.n	8002cfe <TIM_Base_SetConfig+0x8a>
 8002cd6:	687b      	ldr	r3, [r7, #4]
 8002cd8:	4a27      	ldr	r2, [pc, #156]	@ (8002d78 <TIM_Base_SetConfig+0x104>)
 8002cda:	4293      	cmp	r3, r2
 8002cdc:	d00f      	beq.n	8002cfe <TIM_Base_SetConfig+0x8a>
 8002cde:	687b      	ldr	r3, [r7, #4]
 8002ce0:	4a26      	ldr	r2, [pc, #152]	@ (8002d7c <TIM_Base_SetConfig+0x108>)
 8002ce2:	4293      	cmp	r3, r2
 8002ce4:	d00b      	beq.n	8002cfe <TIM_Base_SetConfig+0x8a>
 8002ce6:	687b      	ldr	r3, [r7, #4]
 8002ce8:	4a25      	ldr	r2, [pc, #148]	@ (8002d80 <TIM_Base_SetConfig+0x10c>)
 8002cea:	4293      	cmp	r3, r2
 8002cec:	d007      	beq.n	8002cfe <TIM_Base_SetConfig+0x8a>
 8002cee:	687b      	ldr	r3, [r7, #4]
 8002cf0:	4a24      	ldr	r2, [pc, #144]	@ (8002d84 <TIM_Base_SetConfig+0x110>)
 8002cf2:	4293      	cmp	r3, r2
 8002cf4:	d003      	beq.n	8002cfe <TIM_Base_SetConfig+0x8a>
 8002cf6:	687b      	ldr	r3, [r7, #4]
 8002cf8:	4a23      	ldr	r2, [pc, #140]	@ (8002d88 <TIM_Base_SetConfig+0x114>)
 8002cfa:	4293      	cmp	r3, r2
 8002cfc:	d108      	bne.n	8002d10 <TIM_Base_SetConfig+0x9c>
  {
    /* Set the clock division */
    tmpcr1 &= ~TIM_CR1_CKD;
 8002cfe:	68fb      	ldr	r3, [r7, #12]
 8002d00:	f423 7340 	bic.w	r3, r3, #768	@ 0x300
 8002d04:	60fb      	str	r3, [r7, #12]
    tmpcr1 |= (uint32_t)Structure->ClockDivision;
 8002d06:	683b      	ldr	r3, [r7, #0]
 8002d08:	68db      	ldr	r3, [r3, #12]
 8002d0a:	68fa      	ldr	r2, [r7, #12]
 8002d0c:	4313      	orrs	r3, r2
 8002d0e:	60fb      	str	r3, [r7, #12]
  }

  /* Set the auto-reload preload */
  MODIFY_REG(tmpcr1, TIM_CR1_ARPE, Structure->AutoReloadPreload);
 8002d10:	68fb      	ldr	r3, [r7, #12]
 8002d12:	f023 0280 	bic.w	r2, r3, #128	@ 0x80
 8002d16:	683b      	ldr	r3, [r7, #0]
 8002d18:	695b      	ldr	r3, [r3, #20]
 8002d1a:	4313      	orrs	r3, r2
 8002d1c:	60fb      	str	r3, [r7, #12]

  TIMx->CR1 = tmpcr1;
 8002d1e:	687b      	ldr	r3, [r7, #4]
 8002d20:	68fa      	ldr	r2, [r7, #12]
 8002d22:	601a      	str	r2, [r3, #0]

  /* Set the Autoreload value */
  TIMx->ARR = (uint32_t)Structure->Period ;
 8002d24:	683b      	ldr	r3, [r7, #0]
 8002d26:	689a      	ldr	r2, [r3, #8]
 8002d28:	687b      	ldr	r3, [r7, #4]
 8002d2a:	62da      	str	r2, [r3, #44]	@ 0x2c

  /* Set the Prescaler value */
  TIMx->PSC = Structure->Prescaler;
 8002d2c:	683b      	ldr	r3, [r7, #0]
 8002d2e:	681a      	ldr	r2, [r3, #0]
 8002d30:	687b      	ldr	r3, [r7, #4]
 8002d32:	629a      	str	r2, [r3, #40]	@ 0x28

  if (IS_TIM_REPETITION_COUNTER_INSTANCE(TIMx))
 8002d34:	687b      	ldr	r3, [r7, #4]
 8002d36:	4a0e      	ldr	r2, [pc, #56]	@ (8002d70 <TIM_Base_SetConfig+0xfc>)
 8002d38:	4293      	cmp	r3, r2
 8002d3a:	d103      	bne.n	8002d44 <TIM_Base_SetConfig+0xd0>
  {
    /* Set the Repetition Counter value */
    TIMx->RCR = Structure->RepetitionCounter;
 8002d3c:	683b      	ldr	r3, [r7, #0]
 8002d3e:	691a      	ldr	r2, [r3, #16]
 8002d40:	687b      	ldr	r3, [r7, #4]
 8002d42:	631a      	str	r2, [r3, #48]	@ 0x30
  }

  /* Generate an update event to reload the Prescaler
     and the repetition counter (only for advanced timer) value immediately */
  TIMx->EGR = TIM_EGR_UG;
 8002d44:	687b      	ldr	r3, [r7, #4]
 8002d46:	2201      	movs	r2, #1
 8002d48:	615a      	str	r2, [r3, #20]

  /* Check if the update flag is set after the Update Generation, if so clear the UIF flag */
  if (HAL_IS_BIT_SET(TIMx->SR, TIM_FLAG_UPDATE))
 8002d4a:	687b      	ldr	r3, [r7, #4]
 8002d4c:	691b      	ldr	r3, [r3, #16]
 8002d4e:	f003 0301 	and.w	r3, r3, #1
 8002d52:	2b01      	cmp	r3, #1
 8002d54:	d105      	bne.n	8002d62 <TIM_Base_SetConfig+0xee>
  {
    /* Clear the update flag */
    CLEAR_BIT(TIMx->SR, TIM_FLAG_UPDATE);
 8002d56:	687b      	ldr	r3, [r7, #4]
 8002d58:	691b      	ldr	r3, [r3, #16]
 8002d5a:	f023 0201 	bic.w	r2, r3, #1
 8002d5e:	687b      	ldr	r3, [r7, #4]
 8002d60:	611a      	str	r2, [r3, #16]
  }
}
 8002d62:	bf00      	nop
 8002d64:	3714      	adds	r7, #20
 8002d66:	46bd      	mov	sp, r7
 8002d68:	f85d 7b04 	ldr.w	r7, [sp], #4
 8002d6c:	4770      	bx	lr
 8002d6e:	bf00      	nop
 8002d70:	40010000 	.word	0x40010000
 8002d74:	40000400 	.word	0x40000400
 8002d78:	40000800 	.word	0x40000800
 8002d7c:	40000c00 	.word	0x40000c00
 8002d80:	40014000 	.word	0x40014000
 8002d84:	40014400 	.word	0x40014400
 8002d88:	40014800 	.word	0x40014800

08002d8c <TIM_OC1_SetConfig>:
  * @param  TIMx to select the TIM peripheral
  * @param  OC_Config The output configuration structure
  * @retval None
  */
static void TIM_OC1_SetConfig(TIM_TypeDef *TIMx, const TIM_OC_InitTypeDef *OC_Config)
{
 8002d8c:	b480      	push	{r7}
 8002d8e:	b087      	sub	sp, #28
 8002d90:	af00      	add	r7, sp, #0
 8002d92:	6078      	str	r0, [r7, #4]
 8002d94:	6039      	str	r1, [r7, #0]
  uint32_t tmpccmrx;
  uint32_t tmpccer;
  uint32_t tmpcr2;

  /* Get the TIMx CCER register value */
  tmpccer = TIMx->CCER;
 8002d96:	687b      	ldr	r3, [r7, #4]
 8002d98:	6a1b      	ldr	r3, [r3, #32]
 8002d9a:	617b      	str	r3, [r7, #20]

  /* Disable the Channel 1: Reset the CC1E Bit */
  TIMx->CCER &= ~TIM_CCER_CC1E;
 8002d9c:	687b      	ldr	r3, [r7, #4]
 8002d9e:	6a1b      	ldr	r3, [r3, #32]
 8002da0:	f023 0201 	bic.w	r2, r3, #1
 8002da4:	687b      	ldr	r3, [r7, #4]
 8002da6:	621a      	str	r2, [r3, #32]

  /* Get the TIMx CR2 register value */
  tmpcr2 =  TIMx->CR2;
 8002da8:	687b      	ldr	r3, [r7, #4]
 8002daa:	685b      	ldr	r3, [r3, #4]
 8002dac:	613b      	str	r3, [r7, #16]

  /* Get the TIMx CCMR1 register value */
  tmpccmrx = TIMx->CCMR1;
 8002dae:	687b      	ldr	r3, [r7, #4]
 8002db0:	699b      	ldr	r3, [r3, #24]
 8002db2:	60fb      	str	r3, [r7, #12]

  /* Reset the Output Compare Mode Bits */
  tmpccmrx &= ~TIM_CCMR1_OC1M;
 8002db4:	68fb      	ldr	r3, [r7, #12]
 8002db6:	f023 0370 	bic.w	r3, r3, #112	@ 0x70
 8002dba:	60fb      	str	r3, [r7, #12]
  tmpccmrx &= ~TIM_CCMR1_CC1S;
 8002dbc:	68fb      	ldr	r3, [r7, #12]
 8002dbe:	f023 0303 	bic.w	r3, r3, #3
 8002dc2:	60fb      	str	r3, [r7, #12]
  /* Select the Output Compare Mode */
  tmpccmrx |= OC_Config->OCMode;
 8002dc4:	683b      	ldr	r3, [r7, #0]
 8002dc6:	681b      	ldr	r3, [r3, #0]
 8002dc8:	68fa      	ldr	r2, [r7, #12]
 8002dca:	4313      	orrs	r3, r2
 8002dcc:	60fb      	str	r3, [r7, #12]

  /* Reset the Output Polarity level */
  tmpccer &= ~TIM_CCER_CC1P;
 8002dce:	697b      	ldr	r3, [r7, #20]
 8002dd0:	f023 0302 	bic.w	r3, r3, #2
 8002dd4:	617b      	str	r3, [r7, #20]
  /* Set the Output Compare Polarity */
  tmpccer |= OC_Config->OCPolarity;
 8002dd6:	683b      	ldr	r3, [r7, #0]
 8002dd8:	689b      	ldr	r3, [r3, #8]
 8002dda:	697a      	ldr	r2, [r7, #20]
 8002ddc:	4313      	orrs	r3, r2
 8002dde:	617b      	str	r3, [r7, #20]

  if (IS_TIM_CCXN_INSTANCE(TIMx, TIM_CHANNEL_1))
 8002de0:	687b      	ldr	r3, [r7, #4]
 8002de2:	4a1c      	ldr	r2, [pc, #112]	@ (8002e54 <TIM_OC1_SetConfig+0xc8>)
 8002de4:	4293      	cmp	r3, r2
 8002de6:	d10c      	bne.n	8002e02 <TIM_OC1_SetConfig+0x76>
  {
    /* Check parameters */
    assert_param(IS_TIM_OCN_POLARITY(OC_Config->OCNPolarity));

    /* Reset the Output N Polarity level */
    tmpccer &= ~TIM_CCER_CC1NP;
 8002de8:	697b      	ldr	r3, [r7, #20]
 8002dea:	f023 0308 	bic.w	r3, r3, #8
 8002dee:	617b      	str	r3, [r7, #20]
    /* Set the Output N Polarity */
    tmpccer |= OC_Config->OCNPolarity;
 8002df0:	683b      	ldr	r3, [r7, #0]
 8002df2:	68db      	ldr	r3, [r3, #12]
 8002df4:	697a      	ldr	r2, [r7, #20]
 8002df6:	4313      	orrs	r3, r2
 8002df8:	617b      	str	r3, [r7, #20]
    /* Reset the Output N State */
    tmpccer &= ~TIM_CCER_CC1NE;
 8002dfa:	697b      	ldr	r3, [r7, #20]
 8002dfc:	f023 0304 	bic.w	r3, r3, #4
 8002e00:	617b      	str	r3, [r7, #20]
  }

  if (IS_TIM_BREAK_INSTANCE(TIMx))
 8002e02:	687b      	ldr	r3, [r7, #4]
 8002e04:	4a13      	ldr	r2, [pc, #76]	@ (8002e54 <TIM_OC1_SetConfig+0xc8>)
 8002e06:	4293      	cmp	r3, r2
 8002e08:	d111      	bne.n	8002e2e <TIM_OC1_SetConfig+0xa2>
    /* Check parameters */
    assert_param(IS_TIM_OCNIDLE_STATE(OC_Config->OCNIdleState));
    assert_param(IS_TIM_OCIDLE_STATE(OC_Config->OCIdleState));

    /* Reset the Output Compare and Output Compare N IDLE State */
    tmpcr2 &= ~TIM_CR2_OIS1;
 8002e0a:	693b      	ldr	r3, [r7, #16]
 8002e0c:	f423 7380 	bic.w	r3, r3, #256	@ 0x100
 8002e10:	613b      	str	r3, [r7, #16]
    tmpcr2 &= ~TIM_CR2_OIS1N;
 8002e12:	693b      	ldr	r3, [r7, #16]
 8002e14:	f423 7300 	bic.w	r3, r3, #512	@ 0x200
 8002e18:	613b      	str	r3, [r7, #16]
    /* Set the Output Idle state */
    tmpcr2 |= OC_Config->OCIdleState;
 8002e1a:	683b      	ldr	r3, [r7, #0]
 8002e1c:	695b      	ldr	r3, [r3, #20]
 8002e1e:	693a      	ldr	r2, [r7, #16]
 8002e20:	4313      	orrs	r3, r2
 8002e22:	613b      	str	r3, [r7, #16]
    /* Set the Output N Idle state */
    tmpcr2 |= OC_Config->OCNIdleState;
 8002e24:	683b      	ldr	r3, [r7, #0]
 8002e26:	699b      	ldr	r3, [r3, #24]
 8002e28:	693a      	ldr	r2, [r7, #16]
 8002e2a:	4313      	orrs	r3, r2
 8002e2c:	613b      	str	r3, [r7, #16]
  }

  /* Write to TIMx CR2 */
  TIMx->CR2 = tmpcr2;
 8002e2e:	687b      	ldr	r3, [r7, #4]
 8002e30:	693a      	ldr	r2, [r7, #16]
 8002e32:	605a      	str	r2, [r3, #4]

  /* Write to TIMx CCMR1 */
  TIMx->CCMR1 = tmpccmrx;
 8002e34:	687b      	ldr	r3, [r7, #4]
 8002e36:	68fa      	ldr	r2, [r7, #12]
 8002e38:	619a      	str	r2, [r3, #24]

  /* Set the Capture Compare Register value */
  TIMx->CCR1 = OC_Config->Pulse;
 8002e3a:	683b      	ldr	r3, [r7, #0]
 8002e3c:	685a      	ldr	r2, [r3, #4]
 8002e3e:	687b      	ldr	r3, [r7, #4]
 8002e40:	635a      	str	r2, [r3, #52]	@ 0x34

  /* Write to TIMx CCER */
  TIMx->CCER = tmpccer;
 8002e42:	687b      	ldr	r3, [r7, #4]
 8002e44:	697a      	ldr	r2, [r7, #20]
 8002e46:	621a      	str	r2, [r3, #32]
}
 8002e48:	bf00      	nop
 8002e4a:	371c      	adds	r7, #28
 8002e4c:	46bd      	mov	sp, r7
 8002e4e:	f85d 7b04 	ldr.w	r7, [sp], #4
 8002e52:	4770      	bx	lr
 8002e54:	40010000 	.word	0x40010000

08002e58 <TIM_OC2_SetConfig>:
  * @param  TIMx to select the TIM peripheral
  * @param  OC_Config The output configuration structure
  * @retval None
  */
void TIM_OC2_SetConfig(TIM_TypeDef *TIMx, const TIM_OC_InitTypeDef *OC_Config)
{
 8002e58:	b480      	push	{r7}
 8002e5a:	b087      	sub	sp, #28
 8002e5c:	af00      	add	r7, sp, #0
 8002e5e:	6078      	str	r0, [r7, #4]
 8002e60:	6039      	str	r1, [r7, #0]
  uint32_t tmpccmrx;
  uint32_t tmpccer;
  uint32_t tmpcr2;

  /* Get the TIMx CCER register value */
  tmpccer = TIMx->CCER;
 8002e62:	687b      	ldr	r3, [r7, #4]
 8002e64:	6a1b      	ldr	r3, [r3, #32]
 8002e66:	617b      	str	r3, [r7, #20]

  /* Disable the Channel 2: Reset the CC2E Bit */
  TIMx->CCER &= ~TIM_CCER_CC2E;
 8002e68:	687b      	ldr	r3, [r7, #4]
 8002e6a:	6a1b      	ldr	r3, [r3, #32]
 8002e6c:	f023 0210 	bic.w	r2, r3, #16
 8002e70:	687b      	ldr	r3, [r7, #4]
 8002e72:	621a      	str	r2, [r3, #32]

  /* Get the TIMx CR2 register value */
  tmpcr2 =  TIMx->CR2;
 8002e74:	687b      	ldr	r3, [r7, #4]
 8002e76:	685b      	ldr	r3, [r3, #4]
 8002e78:	613b      	str	r3, [r7, #16]

  /* Get the TIMx CCMR1 register value */
  tmpccmrx = TIMx->CCMR1;
 8002e7a:	687b      	ldr	r3, [r7, #4]
 8002e7c:	699b      	ldr	r3, [r3, #24]
 8002e7e:	60fb      	str	r3, [r7, #12]

  /* Reset the Output Compare mode and Capture/Compare selection Bits */
  tmpccmrx &= ~TIM_CCMR1_OC2M;
 8002e80:	68fb      	ldr	r3, [r7, #12]
 8002e82:	f423 43e0 	bic.w	r3, r3, #28672	@ 0x7000
 8002e86:	60fb      	str	r3, [r7, #12]
  tmpccmrx &= ~TIM_CCMR1_CC2S;
 8002e88:	68fb      	ldr	r3, [r7, #12]
 8002e8a:	f423 7340 	bic.w	r3, r3, #768	@ 0x300
 8002e8e:	60fb      	str	r3, [r7, #12]

  /* Select the Output Compare Mode */
  tmpccmrx |= (OC_Config->OCMode << 8U);
 8002e90:	683b      	ldr	r3, [r7, #0]
 8002e92:	681b      	ldr	r3, [r3, #0]
 8002e94:	021b      	lsls	r3, r3, #8
 8002e96:	68fa      	ldr	r2, [r7, #12]
 8002e98:	4313      	orrs	r3, r2
 8002e9a:	60fb      	str	r3, [r7, #12]

  /* Reset the Output Polarity level */
  tmpccer &= ~TIM_CCER_CC2P;
 8002e9c:	697b      	ldr	r3, [r7, #20]
 8002e9e:	f023 0320 	bic.w	r3, r3, #32
 8002ea2:	617b      	str	r3, [r7, #20]
  /* Set the Output Compare Polarity */
  tmpccer |= (OC_Config->OCPolarity << 4U);
 8002ea4:	683b      	ldr	r3, [r7, #0]
 8002ea6:	689b      	ldr	r3, [r3, #8]
 8002ea8:	011b      	lsls	r3, r3, #4
 8002eaa:	697a      	ldr	r2, [r7, #20]
 8002eac:	4313      	orrs	r3, r2
 8002eae:	617b      	str	r3, [r7, #20]

  if (IS_TIM_CCXN_INSTANCE(TIMx, TIM_CHANNEL_2))
 8002eb0:	687b      	ldr	r3, [r7, #4]
 8002eb2:	4a1e      	ldr	r2, [pc, #120]	@ (8002f2c <TIM_OC2_SetConfig+0xd4>)
 8002eb4:	4293      	cmp	r3, r2
 8002eb6:	d10d      	bne.n	8002ed4 <TIM_OC2_SetConfig+0x7c>
  {
    assert_param(IS_TIM_OCN_POLARITY(OC_Config->OCNPolarity));

    /* Reset the Output N Polarity level */
    tmpccer &= ~TIM_CCER_CC2NP;
 8002eb8:	697b      	ldr	r3, [r7, #20]
 8002eba:	f023 0380 	bic.w	r3, r3, #128	@ 0x80
 8002ebe:	617b      	str	r3, [r7, #20]
    /* Set the Output N Polarity */
    tmpccer |= (OC_Config->OCNPolarity << 4U);
 8002ec0:	683b      	ldr	r3, [r7, #0]
 8002ec2:	68db      	ldr	r3, [r3, #12]
 8002ec4:	011b      	lsls	r3, r3, #4
 8002ec6:	697a      	ldr	r2, [r7, #20]
 8002ec8:	4313      	orrs	r3, r2
 8002eca:	617b      	str	r3, [r7, #20]
    /* Reset the Output N State */
    tmpccer &= ~TIM_CCER_CC2NE;
 8002ecc:	697b      	ldr	r3, [r7, #20]
 8002ece:	f023 0340 	bic.w	r3, r3, #64	@ 0x40
 8002ed2:	617b      	str	r3, [r7, #20]
  }

  if (IS_TIM_BREAK_INSTANCE(TIMx))
 8002ed4:	687b      	ldr	r3, [r7, #4]
 8002ed6:	4a15      	ldr	r2, [pc, #84]	@ (8002f2c <TIM_OC2_SetConfig+0xd4>)
 8002ed8:	4293      	cmp	r3, r2
 8002eda:	d113      	bne.n	8002f04 <TIM_OC2_SetConfig+0xac>
    /* Check parameters */
    assert_param(IS_TIM_OCNIDLE_STATE(OC_Config->OCNIdleState));
    assert_param(IS_TIM_OCIDLE_STATE(OC_Config->OCIdleState));

    /* Reset the Output Compare and Output Compare N IDLE State */
    tmpcr2 &= ~TIM_CR2_OIS2;
 8002edc:	693b      	ldr	r3, [r7, #16]
 8002ede:	f423 6380 	bic.w	r3, r3, #1024	@ 0x400
 8002ee2:	613b      	str	r3, [r7, #16]
    tmpcr2 &= ~TIM_CR2_OIS2N;
 8002ee4:	693b      	ldr	r3, [r7, #16]
 8002ee6:	f423 6300 	bic.w	r3, r3, #2048	@ 0x800
 8002eea:	613b      	str	r3, [r7, #16]
    /* Set the Output Idle state */
    tmpcr2 |= (OC_Config->OCIdleState << 2U);
 8002eec:	683b      	ldr	r3, [r7, #0]
 8002eee:	695b      	ldr	r3, [r3, #20]
 8002ef0:	009b      	lsls	r3, r3, #2
 8002ef2:	693a      	ldr	r2, [r7, #16]
 8002ef4:	4313      	orrs	r3, r2
 8002ef6:	613b      	str	r3, [r7, #16]
    /* Set the Output N Idle state */
    tmpcr2 |= (OC_Config->OCNIdleState << 2U);
 8002ef8:	683b      	ldr	r3, [r7, #0]
 8002efa:	699b      	ldr	r3, [r3, #24]
 8002efc:	009b      	lsls	r3, r3, #2
 8002efe:	693a      	ldr	r2, [r7, #16]
 8002f00:	4313      	orrs	r3, r2
 8002f02:	613b      	str	r3, [r7, #16]
  }

  /* Write to TIMx CR2 */
  TIMx->CR2 = tmpcr2;
 8002f04:	687b      	ldr	r3, [r7, #4]
 8002f06:	693a      	ldr	r2, [r7, #16]
 8002f08:	605a      	str	r2, [r3, #4]

  /* Write to TIMx CCMR1 */
  TIMx->CCMR1 = tmpccmrx;
 8002f0a:	687b      	ldr	r3, [r7, #4]
 8002f0c:	68fa      	ldr	r2, [r7, #12]
 8002f0e:	619a      	str	r2, [r3, #24]

  /* Set the Capture Compare Register value */
  TIMx->CCR2 = OC_Config->Pulse;
 8002f10:	683b      	ldr	r3, [r7, #0]
 8002f12:	685a      	ldr	r2, [r3, #4]
 8002f14:	687b      	ldr	r3, [r7, #4]
 8002f16:	639a      	str	r2, [r3, #56]	@ 0x38

  /* Write to TIMx CCER */
  TIMx->CCER = tmpccer;
 8002f18:	687b      	ldr	r3, [r7, #4]
 8002f1a:	697a      	ldr	r2, [r7, #20]
 8002f1c:	621a      	str	r2, [r3, #32]
}
 8002f1e:	bf00      	nop
 8002f20:	371c      	adds	r7, #28
 8002f22:	46bd      	mov	sp, r7
 8002f24:	f85d 7b04 	ldr.w	r7, [sp], #4
 8002f28:	4770      	bx	lr
 8002f2a:	bf00      	nop
 8002f2c:	40010000 	.word	0x40010000

08002f30 <TIM_OC3_SetConfig>:
  * @param  TIMx to select the TIM peripheral
  * @param  OC_Config The output configuration structure
  * @retval None
  */
static void TIM_OC3_SetConfig(TIM_TypeDef *TIMx, const TIM_OC_InitTypeDef *OC_Config)
{
 8002f30:	b480      	push	{r7}
 8002f32:	b087      	sub	sp, #28
 8002f34:	af00      	add	r7, sp, #0
 8002f36:	6078      	str	r0, [r7, #4]
 8002f38:	6039      	str	r1, [r7, #0]
  uint32_t tmpccmrx;
  uint32_t tmpccer;
  uint32_t tmpcr2;

  /* Get the TIMx CCER register value */
  tmpccer = TIMx->CCER;
 8002f3a:	687b      	ldr	r3, [r7, #4]
 8002f3c:	6a1b      	ldr	r3, [r3, #32]
 8002f3e:	617b      	str	r3, [r7, #20]

  /* Disable the Channel 3: Reset the CC2E Bit */
  TIMx->CCER &= ~TIM_CCER_CC3E;
 8002f40:	687b      	ldr	r3, [r7, #4]
 8002f42:	6a1b      	ldr	r3, [r3, #32]
 8002f44:	f423 7280 	bic.w	r2, r3, #256	@ 0x100
 8002f48:	687b      	ldr	r3, [r7, #4]
 8002f4a:	621a      	str	r2, [r3, #32]

  /* Get the TIMx CR2 register value */
  tmpcr2 =  TIMx->CR2;
 8002f4c:	687b      	ldr	r3, [r7, #4]
 8002f4e:	685b      	ldr	r3, [r3, #4]
 8002f50:	613b      	str	r3, [r7, #16]

  /* Get the TIMx CCMR2 register value */
  tmpccmrx = TIMx->CCMR2;
 8002f52:	687b      	ldr	r3, [r7, #4]
 8002f54:	69db      	ldr	r3, [r3, #28]
 8002f56:	60fb      	str	r3, [r7, #12]

  /* Reset the Output Compare mode and Capture/Compare selection Bits */
  tmpccmrx &= ~TIM_CCMR2_OC3M;
 8002f58:	68fb      	ldr	r3, [r7, #12]
 8002f5a:	f023 0370 	bic.w	r3, r3, #112	@ 0x70
 8002f5e:	60fb      	str	r3, [r7, #12]
  tmpccmrx &= ~TIM_CCMR2_CC3S;
 8002f60:	68fb      	ldr	r3, [r7, #12]
 8002f62:	f023 0303 	bic.w	r3, r3, #3
 8002f66:	60fb      	str	r3, [r7, #12]
  /* Select the Output Compare Mode */
  tmpccmrx |= OC_Config->OCMode;
 8002f68:	683b      	ldr	r3, [r7, #0]
 8002f6a:	681b      	ldr	r3, [r3, #0]
 8002f6c:	68fa      	ldr	r2, [r7, #12]
 8002f6e:	4313      	orrs	r3, r2
 8002f70:	60fb      	str	r3, [r7, #12]

  /* Reset the Output Polarity level */
  tmpccer &= ~TIM_CCER_CC3P;
 8002f72:	697b      	ldr	r3, [r7, #20]
 8002f74:	f423 7300 	bic.w	r3, r3, #512	@ 0x200
 8002f78:	617b      	str	r3, [r7, #20]
  /* Set the Output Compare Polarity */
  tmpccer |= (OC_Config->OCPolarity << 8U);
 8002f7a:	683b      	ldr	r3, [r7, #0]
 8002f7c:	689b      	ldr	r3, [r3, #8]
 8002f7e:	021b      	lsls	r3, r3, #8
 8002f80:	697a      	ldr	r2, [r7, #20]
 8002f82:	4313      	orrs	r3, r2
 8002f84:	617b      	str	r3, [r7, #20]

  if (IS_TIM_CCXN_INSTANCE(TIMx, TIM_CHANNEL_3))
 8002f86:	687b      	ldr	r3, [r7, #4]
 8002f88:	4a1d      	ldr	r2, [pc, #116]	@ (8003000 <TIM_OC3_SetConfig+0xd0>)
 8002f8a:	4293      	cmp	r3, r2
 8002f8c:	d10d      	bne.n	8002faa <TIM_OC3_SetConfig+0x7a>
  {
    assert_param(IS_TIM_OCN_POLARITY(OC_Config->OCNPolarity));

    /* Reset the Output N Polarity level */
    tmpccer &= ~TIM_CCER_CC3NP;
 8002f8e:	697b      	ldr	r3, [r7, #20]
 8002f90:	f423 6300 	bic.w	r3, r3, #2048	@ 0x800
 8002f94:	617b      	str	r3, [r7, #20]
    /* Set the Output N Polarity */
    tmpccer |= (OC_Config->OCNPolarity << 8U);
 8002f96:	683b      	ldr	r3, [r7, #0]
 8002f98:	68db      	ldr	r3, [r3, #12]
 8002f9a:	021b      	lsls	r3, r3, #8
 8002f9c:	697a      	ldr	r2, [r7, #20]
 8002f9e:	4313      	orrs	r3, r2
 8002fa0:	617b      	str	r3, [r7, #20]
    /* Reset the Output N State */
    tmpccer &= ~TIM_CCER_CC3NE;
 8002fa2:	697b      	ldr	r3, [r7, #20]
 8002fa4:	f423 6380 	bic.w	r3, r3, #1024	@ 0x400
 8002fa8:	617b      	str	r3, [r7, #20]
  }

  if (IS_TIM_BREAK_INSTANCE(TIMx))
 8002faa:	687b      	ldr	r3, [r7, #4]
 8002fac:	4a14      	ldr	r2, [pc, #80]	@ (8003000 <TIM_OC3_SetConfig+0xd0>)
 8002fae:	4293      	cmp	r3, r2
 8002fb0:	d113      	bne.n	8002fda <TIM_OC3_SetConfig+0xaa>
    /* Check parameters */
    assert_param(IS_TIM_OCNIDLE_STATE(OC_Config->OCNIdleState));
    assert_param(IS_TIM_OCIDLE_STATE(OC_Config->OCIdleState));

    /* Reset the Output Compare and Output Compare N IDLE State */
    tmpcr2 &= ~TIM_CR2_OIS3;
 8002fb2:	693b      	ldr	r3, [r7, #16]
 8002fb4:	f423 5380 	bic.w	r3, r3, #4096	@ 0x1000
 8002fb8:	613b      	str	r3, [r7, #16]
    tmpcr2 &= ~TIM_CR2_OIS3N;
 8002fba:	693b      	ldr	r3, [r7, #16]
 8002fbc:	f423 5300 	bic.w	r3, r3, #8192	@ 0x2000
 8002fc0:	613b      	str	r3, [r7, #16]
    /* Set the Output Idle state */
    tmpcr2 |= (OC_Config->OCIdleState << 4U);
 8002fc2:	683b      	ldr	r3, [r7, #0]
 8002fc4:	695b      	ldr	r3, [r3, #20]
 8002fc6:	011b      	lsls	r3, r3, #4
 8002fc8:	693a      	ldr	r2, [r7, #16]
 8002fca:	4313      	orrs	r3, r2
 8002fcc:	613b      	str	r3, [r7, #16]
    /* Set the Output N Idle state */
    tmpcr2 |= (OC_Config->OCNIdleState << 4U);
 8002fce:	683b      	ldr	r3, [r7, #0]
 8002fd0:	699b      	ldr	r3, [r3, #24]
 8002fd2:	011b      	lsls	r3, r3, #4
 8002fd4:	693a      	ldr	r2, [r7, #16]
 8002fd6:	4313      	orrs	r3, r2
 8002fd8:	613b      	str	r3, [r7, #16]
  }

  /* Write to TIMx CR2 */
  TIMx->CR2 = tmpcr2;
 8002fda:	687b      	ldr	r3, [r7, #4]
 8002fdc:	693a      	ldr	r2, [r7, #16]
 8002fde:	605a      	str	r2, [r3, #4]

  /* Write to TIMx CCMR2 */
  TIMx->CCMR2 = tmpccmrx;
 8002fe0:	687b      	ldr	r3, [r7, #4]
 8002fe2:	68fa      	ldr	r2, [r7, #12]
 8002fe4:	61da      	str	r2, [r3, #28]

  /* Set the Capture Compare Register value */
  TIMx->CCR3 = OC_Config->Pulse;
 8002fe6:	683b      	ldr	r3, [r7, #0]
 8002fe8:	685a      	ldr	r2, [r3, #4]
 8002fea:	687b      	ldr	r3, [r7, #4]
 8002fec:	63da      	str	r2, [r3, #60]	@ 0x3c

  /* Write to TIMx CCER */
  TIMx->CCER = tmpccer;
 8002fee:	687b      	ldr	r3, [r7, #4]
 8002ff0:	697a      	ldr	r2, [r7, #20]
 8002ff2:	621a      	str	r2, [r3, #32]
}
 8002ff4:	bf00      	nop
 8002ff6:	371c      	adds	r7, #28
 8002ff8:	46bd      	mov	sp, r7
 8002ffa:	f85d 7b04 	ldr.w	r7, [sp], #4
 8002ffe:	4770      	bx	lr
 8003000:	40010000 	.word	0x40010000

08003004 <TIM_OC4_SetConfig>:
  * @param  TIMx to select the TIM peripheral
  * @param  OC_Config The output configuration structure
  * @retval None
  */
static void TIM_OC4_SetConfig(TIM_TypeDef *TIMx, const TIM_OC_InitTypeDef *OC_Config)
{
 8003004:	b480      	push	{r7}
 8003006:	b087      	sub	sp, #28
 8003008:	af00      	add	r7, sp, #0
 800300a:	6078      	str	r0, [r7, #4]
 800300c:	6039      	str	r1, [r7, #0]
  uint32_t tmpccmrx;
  uint32_t tmpccer;
  uint32_t tmpcr2;

  /* Get the TIMx CCER register value */
  tmpccer = TIMx->CCER;
 800300e:	687b      	ldr	r3, [r7, #4]
 8003010:	6a1b      	ldr	r3, [r3, #32]
 8003012:	613b      	str	r3, [r7, #16]

  /* Disable the Channel 4: Reset the CC4E Bit */
  TIMx->CCER &= ~TIM_CCER_CC4E;
 8003014:	687b      	ldr	r3, [r7, #4]
 8003016:	6a1b      	ldr	r3, [r3, #32]
 8003018:	f423 5280 	bic.w	r2, r3, #4096	@ 0x1000
 800301c:	687b      	ldr	r3, [r7, #4]
 800301e:	621a      	str	r2, [r3, #32]

  /* Get the TIMx CR2 register value */
  tmpcr2 =  TIMx->CR2;
 8003020:	687b      	ldr	r3, [r7, #4]
 8003022:	685b      	ldr	r3, [r3, #4]
 8003024:	617b      	str	r3, [r7, #20]

  /* Get the TIMx CCMR2 register value */
  tmpccmrx = TIMx->CCMR2;
 8003026:	687b      	ldr	r3, [r7, #4]
 8003028:	69db      	ldr	r3, [r3, #28]
 800302a:	60fb      	str	r3, [r7, #12]

  /* Reset the Output Compare mode and Capture/Compare selection Bits */
  tmpccmrx &= ~TIM_CCMR2_OC4M;
 800302c:	68fb      	ldr	r3, [r7, #12]
 800302e:	f423 43e0 	bic.w	r3, r3, #28672	@ 0x7000
 8003032:	60fb      	str	r3, [r7, #12]
  tmpccmrx &= ~TIM_CCMR2_CC4S;
 8003034:	68fb      	ldr	r3, [r7, #12]
 8003036:	f423 7340 	bic.w	r3, r3, #768	@ 0x300
 800303a:	60fb      	str	r3, [r7, #12]

  /* Select the Output Compare Mode */
  tmpccmrx |= (OC_Config->OCMode << 8U);
 800303c:	683b      	ldr	r3, [r7, #0]
 800303e:	681b      	ldr	r3, [r3, #0]
 8003040:	021b      	lsls	r3, r3, #8
 8003042:	68fa      	ldr	r2, [r7, #12]
 8003044:	4313      	orrs	r3, r2
 8003046:	60fb      	str	r3, [r7, #12]

  /* Reset the Output Polarity level */
  tmpccer &= ~TIM_CCER_CC4P;
 8003048:	693b      	ldr	r3, [r7, #16]
 800304a:	f423 5300 	bic.w	r3, r3, #8192	@ 0x2000
 800304e:	613b      	str	r3, [r7, #16]
  /* Set the Output Compare Polarity */
  tmpccer |= (OC_Config->OCPolarity << 12U);
 8003050:	683b      	ldr	r3, [r7, #0]
 8003052:	689b      	ldr	r3, [r3, #8]
 8003054:	031b      	lsls	r3, r3, #12
 8003056:	693a      	ldr	r2, [r7, #16]
 8003058:	4313      	orrs	r3, r2
 800305a:	613b      	str	r3, [r7, #16]

  if (IS_TIM_BREAK_INSTANCE(TIMx))
 800305c:	687b      	ldr	r3, [r7, #4]
 800305e:	4a10      	ldr	r2, [pc, #64]	@ (80030a0 <TIM_OC4_SetConfig+0x9c>)
 8003060:	4293      	cmp	r3, r2
 8003062:	d109      	bne.n	8003078 <TIM_OC4_SetConfig+0x74>
  {
    /* Check parameters */
    assert_param(IS_TIM_OCIDLE_STATE(OC_Config->OCIdleState));

    /* Reset the Output Compare IDLE State */
    tmpcr2 &= ~TIM_CR2_OIS4;
 8003064:	697b      	ldr	r3, [r7, #20]
 8003066:	f423 4380 	bic.w	r3, r3, #16384	@ 0x4000
 800306a:	617b      	str	r3, [r7, #20]

    /* Set the Output Idle state */
    tmpcr2 |= (OC_Config->OCIdleState << 6U);
 800306c:	683b      	ldr	r3, [r7, #0]
 800306e:	695b      	ldr	r3, [r3, #20]
 8003070:	019b      	lsls	r3, r3, #6
 8003072:	697a      	ldr	r2, [r7, #20]
 8003074:	4313      	orrs	r3, r2
 8003076:	617b      	str	r3, [r7, #20]
  }

  /* Write to TIMx CR2 */
  TIMx->CR2 = tmpcr2;
 8003078:	687b      	ldr	r3, [r7, #4]
 800307a:	697a      	ldr	r2, [r7, #20]
 800307c:	605a      	str	r2, [r3, #4]

  /* Write to TIMx CCMR2 */
  TIMx->CCMR2 = tmpccmrx;
 800307e:	687b      	ldr	r3, [r7, #4]
 8003080:	68fa      	ldr	r2, [r7, #12]
 8003082:	61da      	str	r2, [r3, #28]

  /* Set the Capture Compare Register value */
  TIMx->CCR4 = OC_Config->Pulse;
 8003084:	683b      	ldr	r3, [r7, #0]
 8003086:	685a      	ldr	r2, [r3, #4]
 8003088:	687b      	ldr	r3, [r7, #4]
 800308a:	641a      	str	r2, [r3, #64]	@ 0x40

  /* Write to TIMx CCER */
  TIMx->CCER = tmpccer;
 800308c:	687b      	ldr	r3, [r7, #4]
 800308e:	693a      	ldr	r2, [r7, #16]
 8003090:	621a      	str	r2, [r3, #32]
}
 8003092:	bf00      	nop
 8003094:	371c      	adds	r7, #28
 8003096:	46bd      	mov	sp, r7
 8003098:	f85d 7b04 	ldr.w	r7, [sp], #4
 800309c:	4770      	bx	lr
 800309e:	bf00      	nop
 80030a0:	40010000 	.word	0x40010000

080030a4 <TIM_TI1_ConfigInputStage>:
  * @param  TIM_ICFilter Specifies the Input Capture Filter.
  *          This parameter must be a value between 0x00 and 0x0F.
  * @retval None
  */
static void TIM_TI1_ConfigInputStage(TIM_TypeDef *TIMx, uint32_t TIM_ICPolarity, uint32_t TIM_ICFilter)
{
 80030a4:	b480      	push	{r7}
 80030a6:	b087      	sub	sp, #28
 80030a8:	af00      	add	r7, sp, #0
 80030aa:	60f8      	str	r0, [r7, #12]
 80030ac:	60b9      	str	r1, [r7, #8]
 80030ae:	607a      	str	r2, [r7, #4]
  uint32_t tmpccmr1;
  uint32_t tmpccer;

  /* Disable the Channel 1: Reset the CC1E Bit */
  tmpccer = TIMx->CCER;
 80030b0:	68fb      	ldr	r3, [r7, #12]
 80030b2:	6a1b      	ldr	r3, [r3, #32]
 80030b4:	617b      	str	r3, [r7, #20]
  TIMx->CCER &= ~TIM_CCER_CC1E;
 80030b6:	68fb      	ldr	r3, [r7, #12]
 80030b8:	6a1b      	ldr	r3, [r3, #32]
 80030ba:	f023 0201 	bic.w	r2, r3, #1
 80030be:	68fb      	ldr	r3, [r7, #12]
 80030c0:	621a      	str	r2, [r3, #32]
  tmpccmr1 = TIMx->CCMR1;
 80030c2:	68fb      	ldr	r3, [r7, #12]
 80030c4:	699b      	ldr	r3, [r3, #24]
 80030c6:	613b      	str	r3, [r7, #16]

  /* Set the filter */
  tmpccmr1 &= ~TIM_CCMR1_IC1F;
 80030c8:	693b      	ldr	r3, [r7, #16]
 80030ca:	f023 03f0 	bic.w	r3, r3, #240	@ 0xf0
 80030ce:	613b      	str	r3, [r7, #16]
  tmpccmr1 |= (TIM_ICFilter << 4U);
 80030d0:	687b      	ldr	r3, [r7, #4]
 80030d2:	011b      	lsls	r3, r3, #4
 80030d4:	693a      	ldr	r2, [r7, #16]
 80030d6:	4313      	orrs	r3, r2
 80030d8:	613b      	str	r3, [r7, #16]

  /* Select the Polarity and set the CC1E Bit */
  tmpccer &= ~(TIM_CCER_CC1P | TIM_CCER_CC1NP);
 80030da:	697b      	ldr	r3, [r7, #20]
 80030dc:	f023 030a 	bic.w	r3, r3, #10
 80030e0:	617b      	str	r3, [r7, #20]
  tmpccer |= TIM_ICPolarity;
 80030e2:	697a      	ldr	r2, [r7, #20]
 80030e4:	68bb      	ldr	r3, [r7, #8]
 80030e6:	4313      	orrs	r3, r2
 80030e8:	617b      	str	r3, [r7, #20]

  /* Write to TIMx CCMR1 and CCER registers */
  TIMx->CCMR1 = tmpccmr1;
 80030ea:	68fb      	ldr	r3, [r7, #12]
 80030ec:	693a      	ldr	r2, [r7, #16]
 80030ee:	619a      	str	r2, [r3, #24]
  TIMx->CCER = tmpccer;
 80030f0:	68fb      	ldr	r3, [r7, #12]
 80030f2:	697a      	ldr	r2, [r7, #20]
 80030f4:	621a      	str	r2, [r3, #32]
}
 80030f6:	bf00      	nop
 80030f8:	371c      	adds	r7, #28
 80030fa:	46bd      	mov	sp, r7
 80030fc:	f85d 7b04 	ldr.w	r7, [sp], #4
 8003100:	4770      	bx	lr

08003102 <TIM_TI2_ConfigInputStage>:
  * @param  TIM_ICFilter Specifies the Input Capture Filter.
  *          This parameter must be a value between 0x00 and 0x0F.
  * @retval None
  */
static void TIM_TI2_ConfigInputStage(TIM_TypeDef *TIMx, uint32_t TIM_ICPolarity, uint32_t TIM_ICFilter)
{
 8003102:	b480      	push	{r7}
 8003104:	b087      	sub	sp, #28
 8003106:	af00      	add	r7, sp, #0
 8003108:	60f8      	str	r0, [r7, #12]
 800310a:	60b9      	str	r1, [r7, #8]
 800310c:	607a      	str	r2, [r7, #4]
  uint32_t tmpccmr1;
  uint32_t tmpccer;

  /* Disable the Channel 2: Reset the CC2E Bit */
  tmpccer = TIMx->CCER;
 800310e:	68fb      	ldr	r3, [r7, #12]
 8003110:	6a1b      	ldr	r3, [r3, #32]
 8003112:	617b      	str	r3, [r7, #20]
  TIMx->CCER &= ~TIM_CCER_CC2E;
 8003114:	68fb      	ldr	r3, [r7, #12]
 8003116:	6a1b      	ldr	r3, [r3, #32]
 8003118:	f023 0210 	bic.w	r2, r3, #16
 800311c:	68fb      	ldr	r3, [r7, #12]
 800311e:	621a      	str	r2, [r3, #32]
  tmpccmr1 = TIMx->CCMR1;
 8003120:	68fb      	ldr	r3, [r7, #12]
 8003122:	699b      	ldr	r3, [r3, #24]
 8003124:	613b      	str	r3, [r7, #16]

  /* Set the filter */
  tmpccmr1 &= ~TIM_CCMR1_IC2F;
 8003126:	693b      	ldr	r3, [r7, #16]
 8003128:	f423 4370 	bic.w	r3, r3, #61440	@ 0xf000
 800312c:	613b      	str	r3, [r7, #16]
  tmpccmr1 |= (TIM_ICFilter << 12U);
 800312e:	687b      	ldr	r3, [r7, #4]
 8003130:	031b      	lsls	r3, r3, #12
 8003132:	693a      	ldr	r2, [r7, #16]
 8003134:	4313      	orrs	r3, r2
 8003136:	613b      	str	r3, [r7, #16]

  /* Select the Polarity and set the CC2E Bit */
  tmpccer &= ~(TIM_CCER_CC2P | TIM_CCER_CC2NP);
 8003138:	697b      	ldr	r3, [r7, #20]
 800313a:	f023 03a0 	bic.w	r3, r3, #160	@ 0xa0
 800313e:	617b      	str	r3, [r7, #20]
  tmpccer |= (TIM_ICPolarity << 4U);
 8003140:	68bb      	ldr	r3, [r7, #8]
 8003142:	011b      	lsls	r3, r3, #4
 8003144:	697a      	ldr	r2, [r7, #20]
 8003146:	4313      	orrs	r3, r2
 8003148:	617b      	str	r3, [r7, #20]

  /* Write to TIMx CCMR1 and CCER registers */
  TIMx->CCMR1 = tmpccmr1 ;
 800314a:	68fb      	ldr	r3, [r7, #12]
 800314c:	693a      	ldr	r2, [r7, #16]
 800314e:	619a      	str	r2, [r3, #24]
  TIMx->CCER = tmpccer;
 8003150:	68fb      	ldr	r3, [r7, #12]
 8003152:	697a      	ldr	r2, [r7, #20]
 8003154:	621a      	str	r2, [r3, #32]
}
 8003156:	bf00      	nop
 8003158:	371c      	adds	r7, #28
 800315a:	46bd      	mov	sp, r7
 800315c:	f85d 7b04 	ldr.w	r7, [sp], #4
 8003160:	4770      	bx	lr

08003162 <TIM_ITRx_SetConfig>:
  *            @arg TIM_TS_TI2FP2: Filtered Timer Input 2
  *            @arg TIM_TS_ETRF: External Trigger input
  * @retval None
  */
static void TIM_ITRx_SetConfig(TIM_TypeDef *TIMx, uint32_t InputTriggerSource)
{
 8003162:	b480      	push	{r7}
 8003164:	b085      	sub	sp, #20
 8003166:	af00      	add	r7, sp, #0
 8003168:	6078      	str	r0, [r7, #4]
 800316a:	6039      	str	r1, [r7, #0]
  uint32_t tmpsmcr;

  /* Get the TIMx SMCR register value */
  tmpsmcr = TIMx->SMCR;
 800316c:	687b      	ldr	r3, [r7, #4]
 800316e:	689b      	ldr	r3, [r3, #8]
 8003170:	60fb      	str	r3, [r7, #12]
  /* Reset the TS Bits */
  tmpsmcr &= ~TIM_SMCR_TS;
 8003172:	68fb      	ldr	r3, [r7, #12]
 8003174:	f023 0370 	bic.w	r3, r3, #112	@ 0x70
 8003178:	60fb      	str	r3, [r7, #12]
  /* Set the Input Trigger source and the slave mode*/
  tmpsmcr |= (InputTriggerSource | TIM_SLAVEMODE_EXTERNAL1);
 800317a:	683a      	ldr	r2, [r7, #0]
 800317c:	68fb      	ldr	r3, [r7, #12]
 800317e:	4313      	orrs	r3, r2
 8003180:	f043 0307 	orr.w	r3, r3, #7
 8003184:	60fb      	str	r3, [r7, #12]
  /* Write to TIMx SMCR */
  TIMx->SMCR = tmpsmcr;
 8003186:	687b      	ldr	r3, [r7, #4]
 8003188:	68fa      	ldr	r2, [r7, #12]
 800318a:	609a      	str	r2, [r3, #8]
}
 800318c:	bf00      	nop
 800318e:	3714      	adds	r7, #20
 8003190:	46bd      	mov	sp, r7
 8003192:	f85d 7b04 	ldr.w	r7, [sp], #4
 8003196:	4770      	bx	lr

08003198 <TIM_ETR_SetConfig>:
  *          This parameter must be a value between 0x00 and 0x0F
  * @retval None
  */
void TIM_ETR_SetConfig(TIM_TypeDef *TIMx, uint32_t TIM_ExtTRGPrescaler,
                       uint32_t TIM_ExtTRGPolarity, uint32_t ExtTRGFilter)
{
 8003198:	b480      	push	{r7}
 800319a:	b087      	sub	sp, #28
 800319c:	af00      	add	r7, sp, #0
 800319e:	60f8      	str	r0, [r7, #12]
 80031a0:	60b9      	str	r1, [r7, #8]
 80031a2:	607a      	str	r2, [r7, #4]
 80031a4:	603b      	str	r3, [r7, #0]
  uint32_t tmpsmcr;

  tmpsmcr = TIMx->SMCR;
 80031a6:	68fb      	ldr	r3, [r7, #12]
 80031a8:	689b      	ldr	r3, [r3, #8]
 80031aa:	617b      	str	r3, [r7, #20]

  /* Reset the ETR Bits */
  tmpsmcr &= ~(TIM_SMCR_ETF | TIM_SMCR_ETPS | TIM_SMCR_ECE | TIM_SMCR_ETP);
 80031ac:	697b      	ldr	r3, [r7, #20]
 80031ae:	f423 437f 	bic.w	r3, r3, #65280	@ 0xff00
 80031b2:	617b      	str	r3, [r7, #20]

  /* Set the Prescaler, the Filter value and the Polarity */
  tmpsmcr |= (uint32_t)(TIM_ExtTRGPrescaler | (TIM_ExtTRGPolarity | (ExtTRGFilter << 8U)));
 80031b4:	683b      	ldr	r3, [r7, #0]
 80031b6:	021a      	lsls	r2, r3, #8
 80031b8:	687b      	ldr	r3, [r7, #4]
 80031ba:	431a      	orrs	r2, r3
 80031bc:	68bb      	ldr	r3, [r7, #8]
 80031be:	4313      	orrs	r3, r2
 80031c0:	697a      	ldr	r2, [r7, #20]
 80031c2:	4313      	orrs	r3, r2
 80031c4:	617b      	str	r3, [r7, #20]

  /* Write to TIMx SMCR */
  TIMx->SMCR = tmpsmcr;
 80031c6:	68fb      	ldr	r3, [r7, #12]
 80031c8:	697a      	ldr	r2, [r7, #20]
 80031ca:	609a      	str	r2, [r3, #8]
}
 80031cc:	bf00      	nop
 80031ce:	371c      	adds	r7, #28
 80031d0:	46bd      	mov	sp, r7
 80031d2:	f85d 7b04 	ldr.w	r7, [sp], #4
 80031d6:	4770      	bx	lr

080031d8 <TIM_CCxChannelCmd>:
  * @param  ChannelState specifies the TIM Channel CCxE bit new state.
  *          This parameter can be: TIM_CCx_ENABLE or TIM_CCx_DISABLE.
  * @retval None
  */
void TIM_CCxChannelCmd(TIM_TypeDef *TIMx, uint32_t Channel, uint32_t ChannelState)
{
 80031d8:	b480      	push	{r7}
 80031da:	b087      	sub	sp, #28
 80031dc:	af00      	add	r7, sp, #0
 80031de:	60f8      	str	r0, [r7, #12]
 80031e0:	60b9      	str	r1, [r7, #8]
 80031e2:	607a      	str	r2, [r7, #4]

  /* Check the parameters */
  assert_param(IS_TIM_CC1_INSTANCE(TIMx));
  assert_param(IS_TIM_CHANNELS(Channel));

  tmp = TIM_CCER_CC1E << (Channel & 0x1FU); /* 0x1FU = 31 bits max shift */
 80031e4:	68bb      	ldr	r3, [r7, #8]
 80031e6:	f003 031f 	and.w	r3, r3, #31
 80031ea:	2201      	movs	r2, #1
 80031ec:	fa02 f303 	lsl.w	r3, r2, r3
 80031f0:	617b      	str	r3, [r7, #20]

  /* Reset the CCxE Bit */
  TIMx->CCER &= ~tmp;
 80031f2:	68fb      	ldr	r3, [r7, #12]
 80031f4:	6a1a      	ldr	r2, [r3, #32]
 80031f6:	697b      	ldr	r3, [r7, #20]
 80031f8:	43db      	mvns	r3, r3
 80031fa:	401a      	ands	r2, r3
 80031fc:	68fb      	ldr	r3, [r7, #12]
 80031fe:	621a      	str	r2, [r3, #32]

  /* Set or reset the CCxE Bit */
  TIMx->CCER |= (uint32_t)(ChannelState << (Channel & 0x1FU)); /* 0x1FU = 31 bits max shift */
 8003200:	68fb      	ldr	r3, [r7, #12]
 8003202:	6a1a      	ldr	r2, [r3, #32]
 8003204:	68bb      	ldr	r3, [r7, #8]
 8003206:	f003 031f 	and.w	r3, r3, #31
 800320a:	6879      	ldr	r1, [r7, #4]
 800320c:	fa01 f303 	lsl.w	r3, r1, r3
 8003210:	431a      	orrs	r2, r3
 8003212:	68fb      	ldr	r3, [r7, #12]
 8003214:	621a      	str	r2, [r3, #32]
}
 8003216:	bf00      	nop
 8003218:	371c      	adds	r7, #28
 800321a:	46bd      	mov	sp, r7
 800321c:	f85d 7b04 	ldr.w	r7, [sp], #4
 8003220:	4770      	bx	lr
	...

08003224 <HAL_TIMEx_MasterConfigSynchronization>:
  *         mode.
  * @retval HAL status
  */
HAL_StatusTypeDef HAL_TIMEx_MasterConfigSynchronization(TIM_HandleTypeDef *htim,
                                                        const TIM_MasterConfigTypeDef *sMasterConfig)
{
 8003224:	b480      	push	{r7}
 8003226:	b085      	sub	sp, #20
 8003228:	af00      	add	r7, sp, #0
 800322a:	6078      	str	r0, [r7, #4]
 800322c:	6039      	str	r1, [r7, #0]
  assert_param(IS_TIM_MASTER_INSTANCE(htim->Instance));
  assert_param(IS_TIM_TRGO_SOURCE(sMasterConfig->MasterOutputTrigger));
  assert_param(IS_TIM_MSM_STATE(sMasterConfig->MasterSlaveMode));

  /* Check input state */
  __HAL_LOCK(htim);
 800322e:	687b      	ldr	r3, [r7, #4]
 8003230:	f893 303c 	ldrb.w	r3, [r3, #60]	@ 0x3c
 8003234:	2b01      	cmp	r3, #1
 8003236:	d101      	bne.n	800323c <HAL_TIMEx_MasterConfigSynchronization+0x18>
 8003238:	2302      	movs	r3, #2
 800323a:	e050      	b.n	80032de <HAL_TIMEx_MasterConfigSynchronization+0xba>
 800323c:	687b      	ldr	r3, [r7, #4]
 800323e:	2201      	movs	r2, #1
 8003240:	f883 203c 	strb.w	r2, [r3, #60]	@ 0x3c

  /* Change the handler state */
  htim->State = HAL_TIM_STATE_BUSY;
 8003244:	687b      	ldr	r3, [r7, #4]
 8003246:	2202      	movs	r2, #2
 8003248:	f883 203d 	strb.w	r2, [r3, #61]	@ 0x3d

  /* Get the TIMx CR2 register value */
  tmpcr2 = htim->Instance->CR2;
 800324c:	687b      	ldr	r3, [r7, #4]
 800324e:	681b      	ldr	r3, [r3, #0]
 8003250:	685b      	ldr	r3, [r3, #4]
 8003252:	60fb      	str	r3, [r7, #12]

  /* Get the TIMx SMCR register value */
  tmpsmcr = htim->Instance->SMCR;
 8003254:	687b      	ldr	r3, [r7, #4]
 8003256:	681b      	ldr	r3, [r3, #0]
 8003258:	689b      	ldr	r3, [r3, #8]
 800325a:	60bb      	str	r3, [r7, #8]

  /* Reset the MMS Bits */
  tmpcr2 &= ~TIM_CR2_MMS;
 800325c:	68fb      	ldr	r3, [r7, #12]
 800325e:	f023 0370 	bic.w	r3, r3, #112	@ 0x70
 8003262:	60fb      	str	r3, [r7, #12]
  /* Select the TRGO source */
  tmpcr2 |=  sMasterConfig->MasterOutputTrigger;
 8003264:	683b      	ldr	r3, [r7, #0]
 8003266:	681b      	ldr	r3, [r3, #0]
 8003268:	68fa      	ldr	r2, [r7, #12]
 800326a:	4313      	orrs	r3, r2
 800326c:	60fb      	str	r3, [r7, #12]

  /* Update TIMx CR2 */
  htim->Instance->CR2 = tmpcr2;
 800326e:	687b      	ldr	r3, [r7, #4]
 8003270:	681b      	ldr	r3, [r3, #0]
 8003272:	68fa      	ldr	r2, [r7, #12]
 8003274:	605a      	str	r2, [r3, #4]

  if (IS_TIM_SLAVE_INSTANCE(htim->Instance))
 8003276:	687b      	ldr	r3, [r7, #4]
 8003278:	681b      	ldr	r3, [r3, #0]
 800327a:	4a1c      	ldr	r2, [pc, #112]	@ (80032ec <HAL_TIMEx_MasterConfigSynchronization+0xc8>)
 800327c:	4293      	cmp	r3, r2
 800327e:	d018      	beq.n	80032b2 <HAL_TIMEx_MasterConfigSynchronization+0x8e>
 8003280:	687b      	ldr	r3, [r7, #4]
 8003282:	681b      	ldr	r3, [r3, #0]
 8003284:	f1b3 4f80 	cmp.w	r3, #1073741824	@ 0x40000000
 8003288:	d013      	beq.n	80032b2 <HAL_TIMEx_MasterConfigSynchronization+0x8e>
 800328a:	687b      	ldr	r3, [r7, #4]
 800328c:	681b      	ldr	r3, [r3, #0]
 800328e:	4a18      	ldr	r2, [pc, #96]	@ (80032f0 <HAL_TIMEx_MasterConfigSynchronization+0xcc>)
 8003290:	4293      	cmp	r3, r2
 8003292:	d00e      	beq.n	80032b2 <HAL_TIMEx_MasterConfigSynchronization+0x8e>
 8003294:	687b      	ldr	r3, [r7, #4]
 8003296:	681b      	ldr	r3, [r3, #0]
 8003298:	4a16      	ldr	r2, [pc, #88]	@ (80032f4 <HAL_TIMEx_MasterConfigSynchronization+0xd0>)
 800329a:	4293      	cmp	r3, r2
 800329c:	d009      	beq.n	80032b2 <HAL_TIMEx_MasterConfigSynchronization+0x8e>
 800329e:	687b      	ldr	r3, [r7, #4]
 80032a0:	681b      	ldr	r3, [r3, #0]
 80032a2:	4a15      	ldr	r2, [pc, #84]	@ (80032f8 <HAL_TIMEx_MasterConfigSynchronization+0xd4>)
 80032a4:	4293      	cmp	r3, r2
 80032a6:	d004      	beq.n	80032b2 <HAL_TIMEx_MasterConfigSynchronization+0x8e>
 80032a8:	687b      	ldr	r3, [r7, #4]
 80032aa:	681b      	ldr	r3, [r3, #0]
 80032ac:	4a13      	ldr	r2, [pc, #76]	@ (80032fc <HAL_TIMEx_MasterConfigSynchronization+0xd8>)
 80032ae:	4293      	cmp	r3, r2
 80032b0:	d10c      	bne.n	80032cc <HAL_TIMEx_MasterConfigSynchronization+0xa8>
  {
    /* Reset the MSM Bit */
    tmpsmcr &= ~TIM_SMCR_MSM;
 80032b2:	68bb      	ldr	r3, [r7, #8]
 80032b4:	f023 0380 	bic.w	r3, r3, #128	@ 0x80
 80032b8:	60bb      	str	r3, [r7, #8]
    /* Set master mode */
    tmpsmcr |= sMasterConfig->MasterSlaveMode;
 80032ba:	683b      	ldr	r3, [r7, #0]
 80032bc:	685b      	ldr	r3, [r3, #4]
 80032be:	68ba      	ldr	r2, [r7, #8]
 80032c0:	4313      	orrs	r3, r2
 80032c2:	60bb      	str	r3, [r7, #8]

    /* Update TIMx SMCR */
    htim->Instance->SMCR = tmpsmcr;
 80032c4:	687b      	ldr	r3, [r7, #4]
 80032c6:	681b      	ldr	r3, [r3, #0]
 80032c8:	68ba      	ldr	r2, [r7, #8]
 80032ca:	609a      	str	r2, [r3, #8]
  }

  /* Change the htim state */
  htim->State = HAL_TIM_STATE_READY;
 80032cc:	687b      	ldr	r3, [r7, #4]
 80032ce:	2201      	movs	r2, #1
 80032d0:	f883 203d 	strb.w	r2, [r3, #61]	@ 0x3d

  __HAL_UNLOCK(htim);
 80032d4:	687b      	ldr	r3, [r7, #4]
 80032d6:	2200      	movs	r2, #0
 80032d8:	f883 203c 	strb.w	r2, [r3, #60]	@ 0x3c

  return HAL_OK;
 80032dc:	2300      	movs	r3, #0
}
 80032de:	4618      	mov	r0, r3
 80032e0:	3714      	adds	r7, #20
 80032e2:	46bd      	mov	sp, r7
 80032e4:	f85d 7b04 	ldr.w	r7, [sp], #4
 80032e8:	4770      	bx	lr
 80032ea:	bf00      	nop
 80032ec:	40010000 	.word	0x40010000
 80032f0:	40000400 	.word	0x40000400
 80032f4:	40000800 	.word	0x40000800
 80032f8:	40000c00 	.word	0x40000c00
 80032fc:	40014000 	.word	0x40014000

08003300 <HAL_TIMEx_ConfigBreakDeadTime>:
  *         interrupt can be enabled by calling the @ref __HAL_TIM_ENABLE_IT macro.
  * @retval HAL status
  */
HAL_StatusTypeDef HAL_TIMEx_ConfigBreakDeadTime(TIM_HandleTypeDef *htim,
                                                const TIM_BreakDeadTimeConfigTypeDef *sBreakDeadTimeConfig)
{
 8003300:	b480      	push	{r7}
 8003302:	b085      	sub	sp, #20
 8003304:	af00      	add	r7, sp, #0
 8003306:	6078      	str	r0, [r7, #4]
 8003308:	6039      	str	r1, [r7, #0]
  /* Keep this variable initialized to 0 as it is used to configure BDTR register */
  uint32_t tmpbdtr = 0U;
 800330a:	2300      	movs	r3, #0
 800330c:	60fb      	str	r3, [r7, #12]
  assert_param(IS_TIM_BREAK_STATE(sBreakDeadTimeConfig->BreakState));
  assert_param(IS_TIM_BREAK_POLARITY(sBreakDeadTimeConfig->BreakPolarity));
  assert_param(IS_TIM_AUTOMATIC_OUTPUT_STATE(sBreakDeadTimeConfig->AutomaticOutput));

  /* Check input state */
  __HAL_LOCK(htim);
 800330e:	687b      	ldr	r3, [r7, #4]
 8003310:	f893 303c 	ldrb.w	r3, [r3, #60]	@ 0x3c
 8003314:	2b01      	cmp	r3, #1
 8003316:	d101      	bne.n	800331c <HAL_TIMEx_ConfigBreakDeadTime+0x1c>
 8003318:	2302      	movs	r3, #2
 800331a:	e03d      	b.n	8003398 <HAL_TIMEx_ConfigBreakDeadTime+0x98>
 800331c:	687b      	ldr	r3, [r7, #4]
 800331e:	2201      	movs	r2, #1
 8003320:	f883 203c 	strb.w	r2, [r3, #60]	@ 0x3c

  /* Set the Lock level, the Break enable Bit and the Polarity, the OSSR State,
     the OSSI State, the dead time value and the Automatic Output Enable Bit */

  /* Set the BDTR bits */
  MODIFY_REG(tmpbdtr, TIM_BDTR_DTG, sBreakDeadTimeConfig->DeadTime);
 8003324:	68fb      	ldr	r3, [r7, #12]
 8003326:	f023 02ff 	bic.w	r2, r3, #255	@ 0xff
 800332a:	683b      	ldr	r3, [r7, #0]
 800332c:	68db      	ldr	r3, [r3, #12]
 800332e:	4313      	orrs	r3, r2
 8003330:	60fb      	str	r3, [r7, #12]
  MODIFY_REG(tmpbdtr, TIM_BDTR_LOCK, sBreakDeadTimeConfig->LockLevel);
 8003332:	68fb      	ldr	r3, [r7, #12]
 8003334:	f423 7240 	bic.w	r2, r3, #768	@ 0x300
 8003338:	683b      	ldr	r3, [r7, #0]
 800333a:	689b      	ldr	r3, [r3, #8]
 800333c:	4313      	orrs	r3, r2
 800333e:	60fb      	str	r3, [r7, #12]
  MODIFY_REG(tmpbdtr, TIM_BDTR_OSSI, sBreakDeadTimeConfig->OffStateIDLEMode);
 8003340:	68fb      	ldr	r3, [r7, #12]
 8003342:	f423 6280 	bic.w	r2, r3, #1024	@ 0x400
 8003346:	683b      	ldr	r3, [r7, #0]
 8003348:	685b      	ldr	r3, [r3, #4]
 800334a:	4313      	orrs	r3, r2
 800334c:	60fb      	str	r3, [r7, #12]
  MODIFY_REG(tmpbdtr, TIM_BDTR_OSSR, sBreakDeadTimeConfig->OffStateRunMode);
 800334e:	68fb      	ldr	r3, [r7, #12]
 8003350:	f423 6200 	bic.w	r2, r3, #2048	@ 0x800
 8003354:	683b      	ldr	r3, [r7, #0]
 8003356:	681b      	ldr	r3, [r3, #0]
 8003358:	4313      	orrs	r3, r2
 800335a:	60fb      	str	r3, [r7, #12]
  MODIFY_REG(tmpbdtr, TIM_BDTR_BKE, sBreakDeadTimeConfig->BreakState);
 800335c:	68fb      	ldr	r3, [r7, #12]
 800335e:	f423 5280 	bic.w	r2, r3, #4096	@ 0x1000
 8003362:	683b      	ldr	r3, [r7, #0]
 8003364:	691b      	ldr	r3, [r3, #16]
 8003366:	4313      	orrs	r3, r2
 8003368:	60fb      	str	r3, [r7, #12]
  MODIFY_REG(tmpbdtr, TIM_BDTR_BKP, sBreakDeadTimeConfig->BreakPolarity);
 800336a:	68fb      	ldr	r3, [r7, #12]
 800336c:	f423 5200 	bic.w	r2, r3, #8192	@ 0x2000
 8003370:	683b      	ldr	r3, [r7, #0]
 8003372:	695b      	ldr	r3, [r3, #20]
 8003374:	4313      	orrs	r3, r2
 8003376:	60fb      	str	r3, [r7, #12]
  MODIFY_REG(tmpbdtr, TIM_BDTR_AOE, sBreakDeadTimeConfig->AutomaticOutput);
 8003378:	68fb      	ldr	r3, [r7, #12]
 800337a:	f423 4280 	bic.w	r2, r3, #16384	@ 0x4000
 800337e:	683b      	ldr	r3, [r7, #0]
 8003380:	69db      	ldr	r3, [r3, #28]
 8003382:	4313      	orrs	r3, r2
 8003384:	60fb      	str	r3, [r7, #12]


  /* Set TIMx_BDTR */
  htim->Instance->BDTR = tmpbdtr;
 8003386:	687b      	ldr	r3, [r7, #4]
 8003388:	681b      	ldr	r3, [r3, #0]
 800338a:	68fa      	ldr	r2, [r7, #12]
 800338c:	645a      	str	r2, [r3, #68]	@ 0x44

  __HAL_UNLOCK(htim);
 800338e:	687b      	ldr	r3, [r7, #4]
 8003390:	2200      	movs	r2, #0
 8003392:	f883 203c 	strb.w	r2, [r3, #60]	@ 0x3c

  return HAL_OK;
 8003396:	2300      	movs	r3, #0
}
 8003398:	4618      	mov	r0, r3
 800339a:	3714      	adds	r7, #20
 800339c:	46bd      	mov	sp, r7
 800339e:	f85d 7b04 	ldr.w	r7, [sp], #4
 80033a2:	4770      	bx	lr

080033a4 <HAL_TIMEx_CommutCallback>:
  * @brief  Commutation callback in non-blocking mode
  * @param  htim TIM handle
  * @retval None
  */
__weak void HAL_TIMEx_CommutCallback(TIM_HandleTypeDef *htim)
{
 80033a4:	b480      	push	{r7}
 80033a6:	b083      	sub	sp, #12
 80033a8:	af00      	add	r7, sp, #0
 80033aa:	6078      	str	r0, [r7, #4]
  UNUSED(htim);

  /* NOTE : This function should not be modified, when the callback is needed,
            the HAL_TIMEx_CommutCallback could be implemented in the user file
   */
}
 80033ac:	bf00      	nop
 80033ae:	370c      	adds	r7, #12
 80033b0:	46bd      	mov	sp, r7
 80033b2:	f85d 7b04 	ldr.w	r7, [sp], #4
 80033b6:	4770      	bx	lr

080033b8 <HAL_TIMEx_CommutHalfCpltCallback>:
  * @brief  Commutation half complete callback in non-blocking mode
  * @param  htim TIM handle
  * @retval None
  */
__weak void HAL_TIMEx_CommutHalfCpltCallback(TIM_HandleTypeDef *htim)
{
 80033b8:	b480      	push	{r7}
 80033ba:	b083      	sub	sp, #12
 80033bc:	af00      	add	r7, sp, #0
 80033be:	6078      	str	r0, [r7, #4]
  UNUSED(htim);

  /* NOTE : This function should not be modified, when the callback is needed,
            the HAL_TIMEx_CommutHalfCpltCallback could be implemented in the user file
   */
}
 80033c0:	bf00      	nop
 80033c2:	370c      	adds	r7, #12
 80033c4:	46bd      	mov	sp, r7
 80033c6:	f85d 7b04 	ldr.w	r7, [sp], #4
 80033ca:	4770      	bx	lr

080033cc <TIMEx_DMACommutationCplt>:
  * @brief  TIM DMA Commutation callback.
  * @param  hdma pointer to DMA handle.
  * @retval None
  */
void TIMEx_DMACommutationCplt(DMA_HandleTypeDef *hdma)
{
 80033cc:	b580      	push	{r7, lr}
 80033ce:	b084      	sub	sp, #16
 80033d0:	af00      	add	r7, sp, #0
 80033d2:	6078      	str	r0, [r7, #4]
  TIM_HandleTypeDef *htim = (TIM_HandleTypeDef *)((DMA_HandleTypeDef *)hdma)->Parent;
 80033d4:	687b      	ldr	r3, [r7, #4]
 80033d6:	6b9b      	ldr	r3, [r3, #56]	@ 0x38
 80033d8:	60fb      	str	r3, [r7, #12]

  /* Change the htim state */
  htim->State = HAL_TIM_STATE_READY;
 80033da:	68fb      	ldr	r3, [r7, #12]
 80033dc:	2201      	movs	r2, #1
 80033de:	f883 203d 	strb.w	r2, [r3, #61]	@ 0x3d

#if (USE_HAL_TIM_REGISTER_CALLBACKS == 1)
  htim->CommutationCallback(htim);
#else
  HAL_TIMEx_CommutCallback(htim);
 80033e2:	68f8      	ldr	r0, [r7, #12]
 80033e4:	f7ff ffde 	bl	80033a4 <HAL_TIMEx_CommutCallback>
#endif /* USE_HAL_TIM_REGISTER_CALLBACKS */
}
 80033e8:	bf00      	nop
 80033ea:	3710      	adds	r7, #16
 80033ec:	46bd      	mov	sp, r7
 80033ee:	bd80      	pop	{r7, pc}

080033f0 <TIMEx_DMACommutationHalfCplt>:
  * @brief  TIM DMA Commutation half complete callback.
  * @param  hdma pointer to DMA handle.
  * @retval None
  */
void TIMEx_DMACommutationHalfCplt(DMA_HandleTypeDef *hdma)
{
 80033f0:	b580      	push	{r7, lr}
 80033f2:	b084      	sub	sp, #16
 80033f4:	af00      	add	r7, sp, #0
 80033f6:	6078      	str	r0, [r7, #4]
  TIM_HandleTypeDef *htim = (TIM_HandleTypeDef *)((DMA_HandleTypeDef *)hdma)->Parent;
 80033f8:	687b      	ldr	r3, [r7, #4]
 80033fa:	6b9b      	ldr	r3, [r3, #56]	@ 0x38
 80033fc:	60fb      	str	r3, [r7, #12]

  /* Change the htim state */
  htim->State = HAL_TIM_STATE_READY;
 80033fe:	68fb      	ldr	r3, [r7, #12]
 8003400:	2201      	movs	r2, #1
 8003402:	f883 203d 	strb.w	r2, [r3, #61]	@ 0x3d

#if (USE_HAL_TIM_REGISTER_CALLBACKS == 1)
  htim->CommutationHalfCpltCallback(htim);
#else
  HAL_TIMEx_CommutHalfCpltCallback(htim);
 8003406:	68f8      	ldr	r0, [r7, #12]
 8003408:	f7ff ffd6 	bl	80033b8 <HAL_TIMEx_CommutHalfCpltCallback>
#endif /* USE_HAL_TIM_REGISTER_CALLBACKS */
}
 800340c:	bf00      	nop
 800340e:	3710      	adds	r7, #16
 8003410:	46bd      	mov	sp, r7
 8003412:	bd80      	pop	{r7, pc}

08003414 <arm_sin_f32>:
 8003414:	eddf 7a1f 	vldr	s15, [pc, #124]	@ 8003494 <arm_sin_f32+0x80>
 8003418:	ee20 0a27 	vmul.f32	s0, s0, s15
 800341c:	eeb5 0ac0 	vcmpe.f32	s0, #0.0
 8003420:	eef1 fa10 	vmrs	APSR_nzcv, fpscr
 8003424:	eefd 7ac0 	vcvt.s32.f32	s15, s0
 8003428:	d504      	bpl.n	8003434 <arm_sin_f32+0x20>
 800342a:	ee17 3a90 	vmov	r3, s15
 800342e:	3b01      	subs	r3, #1
 8003430:	ee07 3a90 	vmov	s15, r3
 8003434:	eef8 7ae7 	vcvt.f32.s32	s15, s15
 8003438:	ed9f 7a17 	vldr	s14, [pc, #92]	@ 8003498 <arm_sin_f32+0x84>
 800343c:	ee30 0a67 	vsub.f32	s0, s0, s15
 8003440:	ee20 0a07 	vmul.f32	s0, s0, s14
 8003444:	eefc 7ac0 	vcvt.u32.f32	s15, s0
 8003448:	ee17 3a90 	vmov	r3, s15
 800344c:	b29b      	uxth	r3, r3
 800344e:	f5b3 7f00 	cmp.w	r3, #512	@ 0x200
 8003452:	d21a      	bcs.n	800348a <arm_sin_f32+0x76>
 8003454:	ee07 3a90 	vmov	s15, r3
 8003458:	eef8 7a67 	vcvt.f32.u32	s15, s15
 800345c:	1c59      	adds	r1, r3, #1
 800345e:	ee30 0a67 	vsub.f32	s0, s0, s15
 8003462:	4a0e      	ldr	r2, [pc, #56]	@ (800349c <arm_sin_f32+0x88>)
 8003464:	eef7 7a00 	vmov.f32	s15, #112	@ 0x3f800000  1.0
 8003468:	eb02 0383 	add.w	r3, r2, r3, lsl #2
 800346c:	eb02 0281 	add.w	r2, r2, r1, lsl #2
 8003470:	ed93 7a00 	vldr	s14, [r3]
 8003474:	edd2 6a00 	vldr	s13, [r2]
 8003478:	ee77 7ac0 	vsub.f32	s15, s15, s0
 800347c:	ee20 0a26 	vmul.f32	s0, s0, s13
 8003480:	ee67 7a87 	vmul.f32	s15, s15, s14
 8003484:	ee37 0a80 	vadd.f32	s0, s15, s0
 8003488:	4770      	bx	lr
 800348a:	ee30 0a47 	vsub.f32	s0, s0, s14
 800348e:	2101      	movs	r1, #1
 8003490:	2300      	movs	r3, #0
 8003492:	e7e6      	b.n	8003462 <arm_sin_f32+0x4e>
 8003494:	3e22f983 	.word	0x3e22f983
 8003498:	44000000 	.word	0x44000000
 800349c:	08003528 	.word	0x08003528

080034a0 <memset>:
 80034a0:	4402      	add	r2, r0
 80034a2:	4603      	mov	r3, r0
 80034a4:	4293      	cmp	r3, r2
 80034a6:	d100      	bne.n	80034aa <memset+0xa>
 80034a8:	4770      	bx	lr
 80034aa:	f803 1b01 	strb.w	r1, [r3], #1
 80034ae:	e7f9      	b.n	80034a4 <memset+0x4>

080034b0 <__libc_init_array>:
 80034b0:	b570      	push	{r4, r5, r6, lr}
 80034b2:	4d0d      	ldr	r5, [pc, #52]	@ (80034e8 <__libc_init_array+0x38>)
 80034b4:	4c0d      	ldr	r4, [pc, #52]	@ (80034ec <__libc_init_array+0x3c>)
 80034b6:	1b64      	subs	r4, r4, r5
 80034b8:	10a4      	asrs	r4, r4, #2
 80034ba:	2600      	movs	r6, #0
 80034bc:	42a6      	cmp	r6, r4
 80034be:	d109      	bne.n	80034d4 <__libc_init_array+0x24>
 80034c0:	4d0b      	ldr	r5, [pc, #44]	@ (80034f0 <__libc_init_array+0x40>)
 80034c2:	4c0c      	ldr	r4, [pc, #48]	@ (80034f4 <__libc_init_array+0x44>)
 80034c4:	f000 f818 	bl	80034f8 <_init>
 80034c8:	1b64      	subs	r4, r4, r5
 80034ca:	10a4      	asrs	r4, r4, #2
 80034cc:	2600      	movs	r6, #0
 80034ce:	42a6      	cmp	r6, r4
 80034d0:	d105      	bne.n	80034de <__libc_init_array+0x2e>
 80034d2:	bd70      	pop	{r4, r5, r6, pc}
 80034d4:	f855 3b04 	ldr.w	r3, [r5], #4
 80034d8:	4798      	blx	r3
 80034da:	3601      	adds	r6, #1
 80034dc:	e7ee      	b.n	80034bc <__libc_init_array+0xc>
 80034de:	f855 3b04 	ldr.w	r3, [r5], #4
 80034e2:	4798      	blx	r3
 80034e4:	3601      	adds	r6, #1
 80034e6:	e7f2      	b.n	80034ce <__libc_init_array+0x1e>
 80034e8:	08003d34 	.word	0x08003d34
 80034ec:	08003d34 	.word	0x08003d34
 80034f0:	08003d34 	.word	0x08003d34
 80034f4:	08003d38 	.word	0x08003d38

080034f8 <_init>:
 80034f8:	b5f8      	push	{r3, r4, r5, r6, r7, lr}
 80034fa:	bf00      	nop
 80034fc:	bcf8      	pop	{r3, r4, r5, r6, r7}
 80034fe:	bc08      	pop	{r3}
 8003500:	469e      	mov	lr, r3
 8003502:	4770      	bx	lr

08003504 <_fini>:
 8003504:	b5f8      	push	{r3, r4, r5, r6, r7, lr}
 8003506:	bf00      	nop
 8003508:	bcf8      	pop	{r3, r4, r5, r6, r7}
 800350a:	bc08      	pop	{r3}
 800350c:	469e      	mov	lr, r3
 800350e:	4770      	bx	lr
